ARM GAS  C:\Users\MATEOC~1.QUE\AppData\Local\Temp\ccPNSuVy.s 			page 1


   1              		.syntax unified
   2              		.cpu cortex-m3
   3              		.fpu softvfp
   4              		.eabi_attribute 20, 1
   5              		.eabi_attribute 21, 1
   6              		.eabi_attribute 23, 3
   7              		.eabi_attribute 24, 1
   8              		.eabi_attribute 25, 1
   9              		.eabi_attribute 26, 1
  10              		.eabi_attribute 30, 1
  11              		.eabi_attribute 34, 1
  12              		.eabi_attribute 18, 4
  13              		.thumb
  14              		.syntax unified
  15              		.file	"swc_clock.c"
  16              		.text
  17              	.Ltext0:
  18              		.cfi_sections	.debug_frame
  19              		.section	.text.CLOCK_input_run,"ax",%progbits
  20              		.align	2
  21              		.global	CLOCK_input_run
  22              		.thumb
  23              		.thumb_func
  24              		.type	CLOCK_input_run, %function
  25              	CLOCK_input_run:
  26              	.LFB120:
  27              		.file 1 "source\\asw\\swc_clock.c"
   1:source\asw/swc_clock.c **** 
   2:source\asw/swc_clock.c **** 
   3:source\asw/swc_clock.c **** /*
   4:source\asw/swc_clock.c ****  * Filename: swc_clock.c
   5:source\asw/swc_clock.c ****  *
   6:source\asw/swc_clock.c ****  * Author: Autogenerated by H-DA RTE Generator, (c) Prof. Fromm
   7:source\asw/swc_clock.c ****  */
   8:source\asw/swc_clock.c **** 
   9:source\asw/swc_clock.c **** #include "project.h"
  10:source\asw/swc_clock.c **** #include "global.h"
  11:source\asw/swc_clock.c **** #include "rte.h"
  12:source\asw/swc_clock.c **** #include "rte_types.h"
  13:source\asw/swc_clock.c **** #include "swc_clock.h"
  14:source\asw/swc_clock.c **** 
  15:source\asw/swc_clock.c **** 
  16:source\asw/swc_clock.c **** 
  17:source\asw/swc_clock.c **** /* USER CODE START SWC_CLOCK_INCLUDE */
  18:source\asw/swc_clock.c **** 
  19:source\asw/swc_clock.c **** /* USER CODE END SWC_CLOCK_INCLUDE */
  20:source\asw/swc_clock.c **** 
  21:source\asw/swc_clock.c **** 
  22:source\asw/swc_clock.c **** #include "sp_common.h"
  23:source\asw/swc_clock.c **** 
  24:source\asw/swc_clock.c **** /* USER CODE START SWC_CLOCK_USERDEFINITIONS */
  25:source\asw/swc_clock.c **** 
  26:source\asw/swc_clock.c **** /* USER CODE END SWC_CLOCK_USERDEFINITIONS */
  27:source\asw/swc_clock.c **** 
  28:source\asw/swc_clock.c **** 
  29:source\asw/swc_clock.c **** 
  30:source\asw/swc_clock.c **** /*
ARM GAS  C:\Users\MATEOC~1.QUE\AppData\Local\Temp\ccPNSuVy.s 			page 2


  31:source\asw/swc_clock.c **** * component: swc_clock
  32:source\asw/swc_clock.c **** * cycletime: 50
  33:source\asw/swc_clock.c **** * description: Runnable
  34:source\asw/swc_clock.c **** * events: 
  35:source\asw/swc_clock.c **** * name: CLOCK_input_run
  36:source\asw/swc_clock.c **** * shortname: input
  37:source\asw/swc_clock.c **** * signalIN: so_event
  38:source\asw/swc_clock.c **** * signalOUT: so_event
  39:source\asw/swc_clock.c **** * task: tsk_io
  40:source\asw/swc_clock.c **** */
  41:source\asw/swc_clock.c **** void CLOCK_input_run(RTE_event ev){
  28              		.loc 1 41 0
  29              		.cfi_startproc
  30              		@ args = 0, pretend = 0, frame = 0
  31              		@ frame_needed = 0, uses_anonymous_args = 0
  32              		@ link register save eliminated.
  33              	.LVL0:
  34 0000 7047     		bx	lr
  35              		.cfi_endproc
  36              	.LFE120:
  37              		.size	CLOCK_input_run, .-CLOCK_input_run
  38 0002 00BF     		.section	.text.CLOCK_control_run,"ax",%progbits
  39              		.align	2
  40              		.global	CLOCK_control_run
  41              		.thumb
  42              		.thumb_func
  43              		.type	CLOCK_control_run, %function
  44              	CLOCK_control_run:
  45              	.LFB121:
  42:source\asw/swc_clock.c **** 	
  43:source\asw/swc_clock.c **** 	/* USER CODE START CLOCK_input_run */
  44:source\asw/swc_clock.c **** 
  45:source\asw/swc_clock.c ****     /* USER CODE END CLOCK_input_run */
  46:source\asw/swc_clock.c **** }
  47:source\asw/swc_clock.c **** 
  48:source\asw/swc_clock.c **** /*
  49:source\asw/swc_clock.c **** * component: swc_clock
  50:source\asw/swc_clock.c **** * cycletime: 0
  51:source\asw/swc_clock.c **** * description: Runnable
  52:source\asw/swc_clock.c **** * events: 
  53:source\asw/swc_clock.c **** * name: CLOCK_control_run
  54:source\asw/swc_clock.c **** * shortname: control
  55:source\asw/swc_clock.c **** * signalIN: so_event
  56:source\asw/swc_clock.c **** * signalOUT: so_event
  57:source\asw/swc_clock.c **** * task: tsk_io
  58:source\asw/swc_clock.c **** */
  59:source\asw/swc_clock.c **** void CLOCK_control_run(RTE_event ev){
  46              		.loc 1 59 0
  47              		.cfi_startproc
  48              		@ args = 0, pretend = 0, frame = 0
  49              		@ frame_needed = 0, uses_anonymous_args = 0
  50              		@ link register save eliminated.
  51              	.LVL1:
  52 0000 7047     		bx	lr
  53              		.cfi_endproc
  54              	.LFE121:
  55              		.size	CLOCK_control_run, .-CLOCK_control_run
ARM GAS  C:\Users\MATEOC~1.QUE\AppData\Local\Temp\ccPNSuVy.s 			page 3


  56 0002 00BF     		.section	.text.CLOCK_display_run,"ax",%progbits
  57              		.align	2
  58              		.global	CLOCK_display_run
  59              		.thumb
  60              		.thumb_func
  61              		.type	CLOCK_display_run, %function
  62              	CLOCK_display_run:
  63              	.LFB122:
  60:source\asw/swc_clock.c **** 	
  61:source\asw/swc_clock.c **** 	/* USER CODE START CLOCK_control_run */
  62:source\asw/swc_clock.c **** 
  63:source\asw/swc_clock.c ****     /* USER CODE END CLOCK_control_run */
  64:source\asw/swc_clock.c **** }
  65:source\asw/swc_clock.c **** 
  66:source\asw/swc_clock.c **** /*
  67:source\asw/swc_clock.c **** * component: swc_clock
  68:source\asw/swc_clock.c **** * cycletime: 250
  69:source\asw/swc_clock.c **** * description: Runnable
  70:source\asw/swc_clock.c **** * events: 
  71:source\asw/swc_clock.c **** * name: CLOCK_display_run
  72:source\asw/swc_clock.c **** * shortname: display
  73:source\asw/swc_clock.c **** * signalIN: so_event
  74:source\asw/swc_clock.c **** * signalOUT: so_event
  75:source\asw/swc_clock.c **** * task: tsk_io
  76:source\asw/swc_clock.c **** */
  77:source\asw/swc_clock.c **** void CLOCK_display_run(RTE_event ev){
  64              		.loc 1 77 0
  65              		.cfi_startproc
  66              		@ args = 0, pretend = 0, frame = 0
  67              		@ frame_needed = 0, uses_anonymous_args = 0
  68              		@ link register save eliminated.
  69              	.LVL2:
  70 0000 7047     		bx	lr
  71              		.cfi_endproc
  72              	.LFE122:
  73              		.size	CLOCK_display_run, .-CLOCK_display_run
  74 0002 00BF     		.text
  75              	.Letext0:
  76              		.file 2 "c:\\program files (x86)\\cypress\\psoc creator\\4.4\\psoc creator\\import\\gnu\\arm\\5.4.
  77              		.file 3 "c:\\program files (x86)\\cypress\\psoc creator\\4.4\\psoc creator\\import\\gnu\\arm\\5.4.
  78              		.file 4 "Generated_Source\\PSoC5/ErikaOS_1_common_ee_types.inc"
  79              		.file 5 "Generated_Source\\PSoC5/ErikaOS_1_cortex_mx_ee_cpu.inc"
  80              		.file 6 "Generated_Source\\PSoC5/ErikaOS_1_ee_oo_common.inc"
  81              		.file 7 ".\\source\\rte/rte_types.h"
  82              		.file 8 "Generated_Source\\PSoC5/ErikaOS_1_ee_oo_intfunc.inc"
  83              		.file 9 "Generated_Source\\PSoC5/ErikaOS_1_cortex_mx_ee_context.inc"
  84              		.file 10 "Generated_Source\\PSoC5/ErikaOS_1_common_ee_primitives.inc"
  85              		.file 11 "Generated_Source\\PSoC5/core_cm3.h"