ARM GAS  C:\Users\mau_g\AppData\Local\Temp\ccnpod5h.s 			page 1


   1              		.syntax unified
   2              		.cpu cortex-m3
   3              		.fpu softvfp
   4              		.eabi_attribute 20, 1
   5              		.eabi_attribute 21, 1
   6              		.eabi_attribute 23, 3
   7              		.eabi_attribute 24, 1
   8              		.eabi_attribute 25, 1
   9              		.eabi_attribute 26, 1
  10              		.eabi_attribute 30, 1
  11              		.eabi_attribute 34, 1
  12              		.eabi_attribute 18, 4
  13              		.thumb
  14              		.syntax unified
  15              		.file	"button.c"
  16              		.text
  17              	.Ltext0:
  18              		.cfi_sections	.debug_frame
  19              		.section	.text.BUTTON_Init,"ax",%progbits
  20              		.align	2
  21              		.global	BUTTON_Init
  22              		.thumb
  23              		.thumb_func
  24              		.type	BUTTON_Init, %function
  25              	BUTTON_Init:
  26              	.LFB110:
  27              		.file 1 "Source\\bsw\\button.c"
   1:Source\bsw/button.c **** /**
   2:Source\bsw/button.c **** * \file button.c
   3:Source\bsw/button.c **** * \author P. Fromm
   4:Source\bsw/button.c **** * \date 29.7.17
   5:Source\bsw/button.c **** *
   6:Source\bsw/button.c **** * \brief Simple button driver
   7:Source\bsw/button.c **** *
   8:Source\bsw/button.c **** * \copyright Copyright ©2016
   9:Source\bsw/button.c **** * Department of electrical engineering and information technology, Hochschule Darmstadt - Universit
  10:Source\bsw/button.c **** * Permission to use, copy, modify, and distribute this software and its documentation for education
  11:Source\bsw/button.c **** * (unless permitted by h_da) and official h_da projects, is hereby granted for enrolled students of
  12:Source\bsw/button.c **** * this paragraph and the following paragraph appear in all copies, modifications, and distributions
  13:Source\bsw/button.c **** * Contact Prof.Dr.-Ing. Peter Fromm, peter.fromm@h-da.de, Birkenweg 8 64295 Darmstadt - GERMANY for
  14:Source\bsw/button.c **** *
  15:Source\bsw/button.c **** * \warning This software is a PROTOTYPE version and is not designed or intended for use in producti
  16:Source\bsw/button.c **** * The user represents and warrants that it will NOT use or redistribute the Software for such purpo
  17:Source\bsw/button.c **** * This prototype is for research purposes only. This software is provided "AS IS," without a warran
  18:Source\bsw/button.c **** */
  19:Source\bsw/button.c **** 
  20:Source\bsw/button.c **** /*****************************************************************************/
  21:Source\bsw/button.c **** /* Include files                                                             */
  22:Source\bsw/button.c **** /*****************************************************************************/
  23:Source\bsw/button.c **** #include "project.h"
  24:Source\bsw/button.c **** #include "button.h"
  25:Source\bsw/button.c **** 
  26:Source\bsw/button.c **** #include "BUTTON_1.h"
  27:Source\bsw/button.c **** #include "BUTTON_2.h"
  28:Source\bsw/button.c **** #include "BUTTON_3.h"
  29:Source\bsw/button.c **** #include "BUTTON_4.h"
  30:Source\bsw/button.c **** 
ARM GAS  C:\Users\mau_g\AppData\Local\Temp\ccnpod5h.s 			page 2


  31:Source\bsw/button.c **** 
  32:Source\bsw/button.c **** /*****************************************************************************/
  33:Source\bsw/button.c **** /* Local pre-processor symbols/macros ('#define')                            */
  34:Source\bsw/button.c **** /*****************************************************************************/
  35:Source\bsw/button.c **** 
  36:Source\bsw/button.c **** /*****************************************************************************/
  37:Source\bsw/button.c **** /* Global variable definitions (declared in header file with 'extern')       */
  38:Source\bsw/button.c **** /*****************************************************************************/
  39:Source\bsw/button.c **** 
  40:Source\bsw/button.c **** /*****************************************************************************/
  41:Source\bsw/button.c **** /* Local type definitions ('typedef')                                        */
  42:Source\bsw/button.c **** /*****************************************************************************/
  43:Source\bsw/button.c **** 
  44:Source\bsw/button.c **** /*****************************************************************************/
  45:Source\bsw/button.c **** /* Local variable definitions ('static')                                     */
  46:Source\bsw/button.c **** /*****************************************************************************/
  47:Source\bsw/button.c **** 
  48:Source\bsw/button.c **** 
  49:Source\bsw/button.c **** 
  50:Source\bsw/button.c **** /*****************************************************************************/
  51:Source\bsw/button.c **** /* Local function prototypes ('static')                                      */
  52:Source\bsw/button.c **** /*****************************************************************************/
  53:Source\bsw/button.c **** 
  54:Source\bsw/button.c **** 
  55:Source\bsw/button.c **** /*****************************************************************************/
  56:Source\bsw/button.c **** /* Function implementation - global ('extern') and local ('static')          */
  57:Source\bsw/button.c **** /*****************************************************************************/
  58:Source\bsw/button.c **** 
  59:Source\bsw/button.c **** /**
  60:Source\bsw/button.c ****  * Initialize Button
  61:Source\bsw/button.c ****  * @return RC_SUCCESS if ok
  62:Source\bsw/button.c ****  */
  63:Source\bsw/button.c **** RC_t BUTTON_Init(cyisraddress address)
  64:Source\bsw/button.c **** {
  28              		.loc 1 64 0
  29              		.cfi_startproc
  30              		@ args = 0, pretend = 0, frame = 0
  31              		@ frame_needed = 0, uses_anonymous_args = 0
  32              	.LVL0:
  65:Source\bsw/button.c ****  
  66:Source\bsw/button.c ****     if (address != 0)
  33              		.loc 1 66 0
  34 0000 20B1     		cbz	r0, .L4
  64:Source\bsw/button.c ****  
  35              		.loc 1 64 0
  36 0002 08B5     		push	{r3, lr}
  37              		.cfi_def_cfa_offset 8
  38              		.cfi_offset 3, -8
  39              		.cfi_offset 14, -4
  67:Source\bsw/button.c ****     {
  68:Source\bsw/button.c ****         isr_Button_StartEx(address);
  40              		.loc 1 68 0
  41 0004 FFF7FEFF 		bl	isr_Button_StartEx
  42              	.LVL1:
  69:Source\bsw/button.c ****     }
  70:Source\bsw/button.c ****     
  71:Source\bsw/button.c ****     return RC_SUCCESS;
ARM GAS  C:\Users\mau_g\AppData\Local\Temp\ccnpod5h.s 			page 3


  72:Source\bsw/button.c **** }
  43              		.loc 1 72 0
  44 0008 0020     		movs	r0, #0
  45 000a 08BD     		pop	{r3, pc}
  46              	.LVL2:
  47              	.L4:
  48              		.cfi_def_cfa_offset 0
  49              		.cfi_restore 3
  50              		.cfi_restore 14
  51 000c 0020     		movs	r0, #0
  52              	.LVL3:
  53 000e 7047     		bx	lr
  54              		.cfi_endproc
  55              	.LFE110:
  56              		.size	BUTTON_Init, .-BUTTON_Init
  57              		.section	.text.BUTTON_IsPressed,"ax",%progbits
  58              		.align	2
  59              		.global	BUTTON_IsPressed
  60              		.thumb
  61              		.thumb_func
  62              		.type	BUTTON_IsPressed, %function
  63              	BUTTON_IsPressed:
  64              	.LFB111:
  73:Source\bsw/button.c **** 
  74:Source\bsw/button.c **** /**
  75:Source\bsw/button.c ****  * Initialize Button
  76:Source\bsw/button.c ****  * @param BUTTON_id_t button - check if the corresponding button is pressed
  77:Source\bsw/button.c ****  * @return TRUE if button is pressed
  78:Source\bsw/button.c ****  */
  79:Source\bsw/button.c **** boolean_t BUTTON_IsPressed(BUTTON_id_t button)
  80:Source\bsw/button.c **** {
  65              		.loc 1 80 0
  66              		.cfi_startproc
  67              		@ args = 0, pretend = 0, frame = 0
  68              		@ frame_needed = 0, uses_anonymous_args = 0
  69              	.LVL4:
  70 0000 08B5     		push	{r3, lr}
  71              		.cfi_def_cfa_offset 8
  72              		.cfi_offset 3, -8
  73              		.cfi_offset 14, -4
  74              	.LVL5:
  81:Source\bsw/button.c ****     boolean_t result = FALSE;
  82:Source\bsw/button.c ****     
  83:Source\bsw/button.c ****     switch (button)
  75              		.loc 1 83 0
  76 0002 0328     		cmp	r0, #3
  77 0004 1BD8     		bhi	.L12
  78 0006 DFE800F0 		tbb	[pc, r0]
  79              	.L8:
  80 000a 02       		.byte	(.L7-.L8)/2
  81 000b 08       		.byte	(.L9-.L8)/2
  82 000c 0E       		.byte	(.L10-.L8)/2
  83 000d 14       		.byte	(.L11-.L8)/2
  84              		.p2align 1
  85              	.L7:
  84:Source\bsw/button.c ****     {
  85:Source\bsw/button.c ****         case BUTTON_1 : if (BUTTON_1_Read() == 1) result = TRUE; break;
ARM GAS  C:\Users\mau_g\AppData\Local\Temp\ccnpod5h.s 			page 4


  86              		.loc 1 85 0
  87 000e FFF7FEFF 		bl	BUTTON_1_Read
  88              	.LVL6:
  89 0012 0128     		cmp	r0, #1
  90 0014 15D0     		beq	.L13
  81:Source\bsw/button.c ****     boolean_t result = FALSE;
  91              		.loc 1 81 0
  92 0016 0020     		movs	r0, #0
  93 0018 08BD     		pop	{r3, pc}
  94              	.LVL7:
  95              	.L9:
  86:Source\bsw/button.c ****         case BUTTON_2 : if (BUTTON_2_Read() == 1) result = TRUE; break;
  96              		.loc 1 86 0
  97 001a FFF7FEFF 		bl	BUTTON_2_Read
  98              	.LVL8:
  99 001e 0128     		cmp	r0, #1
 100 0020 11D0     		beq	.L14
  81:Source\bsw/button.c ****     boolean_t result = FALSE;
 101              		.loc 1 81 0
 102 0022 0020     		movs	r0, #0
 103 0024 08BD     		pop	{r3, pc}
 104              	.LVL9:
 105              	.L10:
  87:Source\bsw/button.c ****         case BUTTON_3 : if (BUTTON_3_Read() == 1) result = TRUE; break;
 106              		.loc 1 87 0
 107 0026 FFF7FEFF 		bl	BUTTON_3_Read
 108              	.LVL10:
 109 002a 0128     		cmp	r0, #1
 110 002c 0DD0     		beq	.L15
  81:Source\bsw/button.c ****     
 111              		.loc 1 81 0
 112 002e 0020     		movs	r0, #0
 113 0030 08BD     		pop	{r3, pc}
 114              	.LVL11:
 115              	.L11:
  88:Source\bsw/button.c ****         case BUTTON_4 : if (BUTTON_4_Read() == 1) result = TRUE; break;
 116              		.loc 1 88 0
 117 0032 FFF7FEFF 		bl	BUTTON_4_Read
 118              	.LVL12:
 119 0036 0128     		cmp	r0, #1
 120 0038 09D0     		beq	.L16
  81:Source\bsw/button.c ****     
 121              		.loc 1 81 0
 122 003a 0020     		movs	r0, #0
 123 003c 08BD     		pop	{r3, pc}
 124              	.LVL13:
 125              	.L12:
 126 003e 0020     		movs	r0, #0
 127              	.LVL14:
 128 0040 08BD     		pop	{r3, pc}
 129              	.L13:
  85:Source\bsw/button.c ****         case BUTTON_2 : if (BUTTON_2_Read() == 1) result = TRUE; break;
 130              		.loc 1 85 0
 131 0042 0120     		movs	r0, #1
 132 0044 08BD     		pop	{r3, pc}
 133              	.L14:
  86:Source\bsw/button.c ****         case BUTTON_3 : if (BUTTON_3_Read() == 1) result = TRUE; break;
ARM GAS  C:\Users\mau_g\AppData\Local\Temp\ccnpod5h.s 			page 5


 134              		.loc 1 86 0
 135 0046 0120     		movs	r0, #1
 136 0048 08BD     		pop	{r3, pc}
 137              	.L15:
  87:Source\bsw/button.c ****         case BUTTON_4 : if (BUTTON_4_Read() == 1) result = TRUE; break;
 138              		.loc 1 87 0
 139 004a 0120     		movs	r0, #1
 140 004c 08BD     		pop	{r3, pc}
 141              	.L16:
 142              		.loc 1 88 0
 143 004e 0120     		movs	r0, #1
 144              	.LVL15:
  89:Source\bsw/button.c ****     }
  90:Source\bsw/button.c ****     
  91:Source\bsw/button.c ****     return result;
  92:Source\bsw/button.c **** }
 145              		.loc 1 92 0
 146 0050 08BD     		pop	{r3, pc}
 147              		.cfi_endproc
 148              	.LFE111:
 149              		.size	BUTTON_IsPressed, .-BUTTON_IsPressed
 150 0052 00BF     		.text
 151              	.Letext0:
 152              		.file 2 "c:\\program files (x86)\\cypress\\psoc creator\\4.4\\psoc creator\\import\\gnu\\arm\\5.4.
 153              		.file 3 "c:\\program files (x86)\\cypress\\psoc creator\\4.4\\psoc creator\\import\\gnu\\arm\\5.4.
 154              		.file 4 "Generated_Source\\PSoC5/cytypes.h"
 155              		.file 5 "Generated_Source\\PSoC5/ErikaOS_1_common_ee_types.inc"
 156              		.file 6 "Generated_Source\\PSoC5/ErikaOS_1_cortex_mx_ee_cpu.inc"
 157              		.file 7 "Source\\bsw\\global.h"
 158              		.file 8 "Source\\bsw\\button.h"
 159              		.file 9 "Generated_Source\\PSoC5/ErikaOS_1_ee_oo_intfunc.inc"
 160              		.file 10 "Generated_Source\\PSoC5/ErikaOS_1_cortex_mx_ee_context.inc"
 161              		.file 11 "Generated_Source\\PSoC5/ErikaOS_1_common_ee_primitives.inc"
 162              		.file 12 "Generated_Source\\PSoC5/core_cm3.h"
 163              		.file 13 "Generated_Source\\PSoC5/isr_Button.h"
 164              		.file 14 "Generated_Source\\PSoC5/BUTTON_1.h"
 165              		.file 15 "Generated_Source\\PSoC5/BUTTON_2.h"
 166              		.file 16 "Generated_Source\\PSoC5/BUTTON_3.h"
 167              		.file 17 "Generated_Source\\PSoC5/BUTTON_4.h"