ARM GAS  C:\Users\mau_g\AppData\Local\Temp\ccUsGJqR.s 			page 1


   1              		.syntax unified
   2              		.cpu cortex-m3
   3              		.fpu softvfp
   4              		.eabi_attribute 20, 1
   5              		.eabi_attribute 21, 1
   6              		.eabi_attribute 23, 3
   7              		.eabi_attribute 24, 1
   8              		.eabi_attribute 25, 1
   9              		.eabi_attribute 26, 1
  10              		.eabi_attribute 30, 1
  11              		.eabi_attribute 34, 1
  12              		.eabi_attribute 18, 4
  13              		.thumb
  14              		.syntax unified
  15              		.file	"clock_type.c"
  16              		.text
  17              	.Ltext0:
  18              		.cfi_sections	.debug_frame
  19              		.section	.text.CLOCK_updateTime,"ax",%progbits
  20              		.align	2
  21              		.thumb
  22              		.thumb_func
  23              		.type	CLOCK_updateTime, %function
  24              	CLOCK_updateTime:
  25              	.LFB154:
  26              		.file 1 "clock_type.c"
   1:clock_type.c  **** /* ========================================
   2:clock_type.c  ****  *
   3:clock_type.c  ****  * Copyright YOUR COMPANY, THE YEAR
   4:clock_type.c  ****  * All Rights Reserved
   5:clock_type.c  ****  * UNPUBLISHED, LICENSED SOFTWARE.
   6:clock_type.c  ****  *
   7:clock_type.c  ****  * CONFIDENTIAL AND PROPRIETARY INFORMATION
   8:clock_type.c  ****  * WHICH IS THE PROPERTY OF your company.
   9:clock_type.c  ****  *
  10:clock_type.c  ****  * ========================================
  11:clock_type.c  **** */
  12:clock_type.c  **** #include "clock_type.h"
  13:clock_type.c  **** //#include "logging.h"
  14:clock_type.c  **** #include "sp_common.h"
  15:clock_type.c  **** 
  16:clock_type.c  **** /*////////////////////////////////////////////////////////
  17:clock_type.c  ****                      PROTOTYPES
  18:clock_type.c  **** */////////////////////////////////////////////////////////
  19:clock_type.c  **** 
  20:clock_type.c  **** //DISPATCHER
  21:clock_type.c  **** static void CLOCK_dispatch_KL_Hours();
  22:clock_type.c  **** static void CLOCK_increment1Minute();
  23:clock_type.c  **** static void CLOCK_dispatch_KL_HoursMin();
  24:clock_type.c  **** static void CLOCK_dispatch_KR_Hours();
  25:clock_type.c  **** static void CLOCK_dispatch_KRLP_Hours();
  26:clock_type.c  **** static void CLOCK_dispatch_250MS_Hours();
  27:clock_type.c  **** static void CLOCK_dispatch_KL_Min();
  28:clock_type.c  **** static void CLOCK_dispatch_KR_Min();
  29:clock_type.c  **** static void CLOCK_dispatch_KRLP_Min();
  30:clock_type.c  **** static void CLOCK_dispatch_250MS_Min();
  31:clock_type.c  **** 
ARM GAS  C:\Users\mau_g\AppData\Local\Temp\ccUsGJqR.s 			page 2


  32:clock_type.c  **** //WIDGET
  33:clock_type.c  **** static void CLOCK_setEditFonts();
  34:clock_type.c  **** static void CLOCK_incrementWidget();
  35:clock_type.c  **** static void CLOCK_setDisplayFonts();
  36:clock_type.c  **** static void CLOCK_updateTime();
  37:clock_type.c  **** 
  38:clock_type.c  **** //DISPATCH WRAPPER
  39:clock_type.c  **** static void CLOCK_dispatch_wrapper(EVENT_enum_t ev, CLOCK_active_widget_t widget);
  40:clock_type.c  **** 
  41:clock_type.c  **** 
  42:clock_type.c  **** /*////////////////////////////////////////////////////////
  43:clock_type.c  ****                      ACTIIONS
  44:clock_type.c  **** */////////////////////////////////////////////////////////
  45:clock_type.c  **** 
  46:clock_type.c  **** ///////////////////////DISPATCHER///////////////////////
  47:clock_type.c  **** 
  48:clock_type.c  **** //CLOCK_dispatch_KL_Hours
  49:clock_type.c  **** static void CLOCK_dispatch_KL_Hours()
  50:clock_type.c  **** {
  51:clock_type.c  ****     UART_LOG_PutString("Dispatch KL Hours \n");
  52:clock_type.c  ****     
  53:clock_type.c  ****     CLOCK_dispatch_wrapper(EV_KEYLEFT, CLOCK_hour_widget);
  54:clock_type.c  **** }
  55:clock_type.c  **** 
  56:clock_type.c  **** //CLOCK_increment1Minute
  57:clock_type.c  **** static void CLOCK_increment1Minute()
  58:clock_type.c  **** {
  59:clock_type.c  ****     UART_LOG_PutString("Increment 1 Minute \n");
  60:clock_type.c  ****     
  61:clock_type.c  ****     CLOCK_dispatch_wrapper(EV_1MIN, CLOCK_hour_widget);
  62:clock_type.c  ****     
  63:clock_type.c  ****     CLOCK_dispatch_wrapper(EV_1MIN, CLOCK_minute_widget);
  64:clock_type.c  **** }
  65:clock_type.c  **** 
  66:clock_type.c  **** //CLOCK_dispatch_KL_HoursMin
  67:clock_type.c  **** static void CLOCK_dispatch_KL_HoursMin()
  68:clock_type.c  **** {
  69:clock_type.c  ****     UART_LOG_PutString("Dispatch KL Hours Min \n");
  70:clock_type.c  ****     
  71:clock_type.c  ****     CLOCK_dispatch_wrapper(EV_KEYLEFT, CLOCK_hour_widget);
  72:clock_type.c  ****     
  73:clock_type.c  ****     CLOCK_dispatch_wrapper(EV_KEYLEFT, CLOCK_minute_widget);
  74:clock_type.c  **** }
  75:clock_type.c  **** 
  76:clock_type.c  **** //CLOCK_dispatch_KR_Hours
  77:clock_type.c  **** static void CLOCK_dispatch_KR_Hours()
  78:clock_type.c  **** {
  79:clock_type.c  ****     UART_LOG_PutString("Dispatch KR Hours \n");
  80:clock_type.c  ****     
  81:clock_type.c  ****     CLOCK_dispatch_wrapper(EV_KEYRIGHT, CLOCK_hour_widget);
  82:clock_type.c  **** }
  83:clock_type.c  **** 
  84:clock_type.c  **** //CLOCK_dispatch_KRLP_Hours
  85:clock_type.c  **** static void CLOCK_dispatch_KRLP_Hours()
  86:clock_type.c  **** {
  87:clock_type.c  ****     UART_LOG_PutString("Dispatch KRLP Hours \n");
  88:clock_type.c  ****     
ARM GAS  C:\Users\mau_g\AppData\Local\Temp\ccUsGJqR.s 			page 3


  89:clock_type.c  ****     CLOCK_dispatch_wrapper(EV_KEYRIGHTLONGPRESS, CLOCK_hour_widget);
  90:clock_type.c  **** }
  91:clock_type.c  **** 
  92:clock_type.c  **** //CLOCK_dispatch_250MS_Hours
  93:clock_type.c  **** static void CLOCK_dispatch_250MS_Hours()
  94:clock_type.c  **** {
  95:clock_type.c  ****     UART_LOG_PutString("Dispatch 250MS Hours \n");
  96:clock_type.c  ****     
  97:clock_type.c  ****     CLOCK_dispatch_wrapper(EV_250MS, CLOCK_hour_widget);
  98:clock_type.c  **** }
  99:clock_type.c  **** 
 100:clock_type.c  **** //CLOCK_dispatch_KL_Min
 101:clock_type.c  **** static void CLOCK_dispatch_KL_Min()
 102:clock_type.c  **** {
 103:clock_type.c  ****     UART_LOG_PutString("Dispatch KL Min \n");
 104:clock_type.c  ****     
 105:clock_type.c  ****     CLOCK_dispatch_wrapper(EV_KEYLEFT, CLOCK_minute_widget);
 106:clock_type.c  **** }
 107:clock_type.c  **** 
 108:clock_type.c  **** //CLOCK_dispatch_KR_Min
 109:clock_type.c  **** static void CLOCK_dispatch_KR_Min()
 110:clock_type.c  **** {
 111:clock_type.c  ****     UART_LOG_PutString("Dispatch KR Min \n");
 112:clock_type.c  ****     
 113:clock_type.c  ****     CLOCK_dispatch_wrapper(EV_KEYRIGHT, CLOCK_minute_widget);
 114:clock_type.c  **** }
 115:clock_type.c  **** 
 116:clock_type.c  **** //CLOCK_dispatch_KRLP_Min
 117:clock_type.c  **** static void CLOCK_dispatch_KRLP_Min()
 118:clock_type.c  **** {
 119:clock_type.c  ****     UART_LOG_PutString("Dispatch KRLP Min \n");
 120:clock_type.c  ****     
 121:clock_type.c  ****     CLOCK_dispatch_wrapper(EV_KEYRIGHTLONGPRESS, CLOCK_minute_widget);
 122:clock_type.c  **** }
 123:clock_type.c  **** 
 124:clock_type.c  **** //CLOCK_dispatch_250MS_Min
 125:clock_type.c  **** static void CLOCK_dispatch_250MS_Min()
 126:clock_type.c  **** {
 127:clock_type.c  ****     UART_LOG_PutString("Dispatch 250MS Min \n");
 128:clock_type.c  ****     
 129:clock_type.c  ****     CLOCK_dispatch_wrapper(EV_250MS, CLOCK_minute_widget);
 130:clock_type.c  **** }
 131:clock_type.c  **** 
 132:clock_type.c  **** ///////////////////////WIDGET///////////////////////
 133:clock_type.c  **** 
 134:clock_type.c  **** //CLOCK_setEditFonts
 135:clock_type.c  **** //Chooses which of the editing widgets is active.
 136:clock_type.c  **** static void CLOCK_setEditFonts()
 137:clock_type.c  **** {
 138:clock_type.c  ****     UART_LOG_PutString("Set Edit Fonts \n");
 139:clock_type.c  ****     
 140:clock_type.c  ****     SC_CLOCK_data_t localClock = RTE_SC_CLOCK_get(&SO_CLOCK_signal);
 141:clock_type.c  ****     
 142:clock_type.c  ****     if(CLOCK_hour_widget == localClock.m_activeWidget) {
 143:clock_type.c  ****         
 144:clock_type.c  ****         localClock.m_hours.m_fontEditing = TRUE;
 145:clock_type.c  ****         
ARM GAS  C:\Users\mau_g\AppData\Local\Temp\ccUsGJqR.s 			page 4


 146:clock_type.c  ****         localClock.m_minutes.m_fontEditing = FALSE;
 147:clock_type.c  ****     }
 148:clock_type.c  ****     else if (CLOCK_minute_widget == localClock.m_activeWidget){
 149:clock_type.c  ****         
 150:clock_type.c  ****         localClock.m_hours.m_fontEditing = FALSE;
 151:clock_type.c  ****         
 152:clock_type.c  ****         localClock.m_minutes.m_fontEditing = TRUE;
 153:clock_type.c  ****     }
 154:clock_type.c  ****     else
 155:clock_type.c  ****     {
 156:clock_type.c  ****         //Intended to do nothing.
 157:clock_type.c  ****     }
 158:clock_type.c  ****     
 159:clock_type.c  ****     RTE_SC_CLOCK_set(&SO_CLOCK_signal, localClock);
 160:clock_type.c  **** }
 161:clock_type.c  **** 
 162:clock_type.c  **** //CLOCK_setDisplayFonts
 163:clock_type.c  **** //Sets that none of the editing widgets is active.
 164:clock_type.c  **** static void CLOCK_setDisplayFonts()
 165:clock_type.c  **** {
 166:clock_type.c  ****     UART_LOG_PutString("Set Display Fonts \n");
 167:clock_type.c  ****     
 168:clock_type.c  ****     SC_CLOCK_data_t localClock = RTE_SC_CLOCK_get(&SO_CLOCK_signal);
 169:clock_type.c  ****     
 170:clock_type.c  ****     localClock.m_hours.m_fontEditing = FALSE;
 171:clock_type.c  ****     
 172:clock_type.c  ****     localClock.m_minutes.m_fontEditing = FALSE;
 173:clock_type.c  ****     
 174:clock_type.c  ****     
 175:clock_type.c  ****     RTE_SC_CLOCK_set(&SO_CLOCK_signal, localClock);
 176:clock_type.c  **** }
 177:clock_type.c  **** 
 178:clock_type.c  **** //CLOCK_incrementWidget
 179:clock_type.c  **** //Increments the widget until it reaches its maximum value, then resets it to zero.
 180:clock_type.c  **** static void CLOCK_incrementWidget()
 181:clock_type.c  **** {
 182:clock_type.c  ****     UART_LOG_PutString("Increment Widget \n");
 183:clock_type.c  ****     
 184:clock_type.c  ****     SC_CLOCK_data_t localClock = RTE_SC_CLOCK_get(&SO_CLOCK_signal);
 185:clock_type.c  ****     
 186:clock_type.c  ****     if(CLOCK_minute_widget == localClock.m_activeWidget)
 187:clock_type.c  ****     {
 188:clock_type.c  ****         if(localClock.m_minutes.m_maxValue > localClock.m_minutes.m_currentValue)
 189:clock_type.c  ****         {
 190:clock_type.c  ****             localClock.m_minutes.m_currentValue++;   
 191:clock_type.c  ****         }
 192:clock_type.c  ****         else
 193:clock_type.c  ****         {
 194:clock_type.c  ****             localClock.m_minutes.m_currentValue = 0; 
 195:clock_type.c  ****         }
 196:clock_type.c  ****     }
 197:clock_type.c  ****     else if(CLOCK_hour_widget == localClock.m_activeWidget)
 198:clock_type.c  ****     {
 199:clock_type.c  ****         if(localClock.m_hours.m_maxValue > localClock.m_hours.m_currentValue)
 200:clock_type.c  ****         {
 201:clock_type.c  ****             localClock.m_hours.m_currentValue++;   
 202:clock_type.c  ****         }
ARM GAS  C:\Users\mau_g\AppData\Local\Temp\ccUsGJqR.s 			page 5


 203:clock_type.c  ****         else
 204:clock_type.c  ****         {
 205:clock_type.c  ****             localClock.m_hours.m_currentValue = 0; 
 206:clock_type.c  ****         }
 207:clock_type.c  ****     }
 208:clock_type.c  ****     else
 209:clock_type.c  ****     {
 210:clock_type.c  ****         //Intended to do nothing.
 211:clock_type.c  ****     }
 212:clock_type.c  ****     
 213:clock_type.c  ****     RTE_SC_CLOCK_set(&SO_CLOCK_signal, localClock);
 214:clock_type.c  **** }
 215:clock_type.c  **** 
 216:clock_type.c  **** //CLOCK_updateTime
 217:clock_type.c  **** static void CLOCK_updateTime()
 218:clock_type.c  **** {
  27              		.loc 1 218 0
  28              		.cfi_startproc
  29              		@ args = 0, pretend = 0, frame = 24
  30              		@ frame_needed = 0, uses_anonymous_args = 0
  31 0000 30B5     		push	{r4, r5, lr}
  32              		.cfi_def_cfa_offset 12
  33              		.cfi_offset 4, -12
  34              		.cfi_offset 5, -8
  35              		.cfi_offset 14, -4
  36 0002 87B0     		sub	sp, sp, #28
  37              		.cfi_def_cfa_offset 40
 219:clock_type.c  ****     UART_LOG_PutString("Update Time \n");
  38              		.loc 1 219 0
  39 0004 3248     		ldr	r0, .L13
  40 0006 FFF7FEFF 		bl	UART_LOG_PutString
  41              	.LVL0:
  42              	.LBB27:
  43              	.LBB28:
  44              		.file 2 ".\\Source\\rte/sc_clock.h"
   1:.\Source\rte/sc_clock.h **** 
   2:.\Source\rte/sc_clock.h **** 
   3:.\Source\rte/sc_clock.h **** /**
   4:.\Source\rte/sc_clock.h **** *  file    SC_CLOCK_signal.h
   5:.\Source\rte/sc_clock.h **** *
   6:.\Source\rte/sc_clock.h **** *  brief   signal base class for signal sc_clock
   7:.\Source\rte/sc_clock.h **** *
   8:.\Source\rte/sc_clock.h **** *  author  Autogenerated, Peter Fromm       <peter.fromm@h-da.de>
   9:.\Source\rte/sc_clock.h **** *
  10:.\Source\rte/sc_clock.h **** *
  11:.\Source\rte/sc_clock.h **** */
  12:.\Source\rte/sc_clock.h **** 
  13:.\Source\rte/sc_clock.h **** /*
  14:.\Source\rte/sc_clock.h **** * description: Signalclass for the clock including the hour and the minute widget
  15:.\Source\rte/sc_clock.h **** * name: sc_clock
  16:.\Source\rte/sc_clock.h **** * shortname: clock
  17:.\Source\rte/sc_clock.h **** */
  18:.\Source\rte/sc_clock.h **** 
  19:.\Source\rte/sc_clock.h **** #ifndef SC_CLOCK_SIGNAL_H_INCLUDED
  20:.\Source\rte/sc_clock.h **** #define SC_CLOCK_SIGNAL_H_INCLUDED
  21:.\Source\rte/sc_clock.h **** 
  22:.\Source\rte/sc_clock.h **** /*================================================[ public includes  ]=============================
ARM GAS  C:\Users\mau_g\AppData\Local\Temp\ccUsGJqR.s 			page 6


  23:.\Source\rte/sc_clock.h **** #include "global.h"
  24:.\Source\rte/sc_clock.h **** #include "project.h"
  25:.\Source\rte/sc_clock.h **** #include "rte.h"
  26:.\Source\rte/sc_clock.h **** #include "rte_types.h"
  27:.\Source\rte/sc_clock.h **** 
  28:.\Source\rte/sc_clock.h **** #include "sc_clock_type.h"
  29:.\Source\rte/sc_clock.h **** 
  30:.\Source\rte/sc_clock.h **** 
  31:.\Source\rte/sc_clock.h **** /**************************************************************************************************
  32:.\Source\rte/sc_clock.h **** /* The driver API block																						*/
  33:.\Source\rte/sc_clock.h **** /**************************************************************************************************
  34:.\Source\rte/sc_clock.h ****                                                                                                    
  35:.\Source\rte/sc_clock.h **** /**
  36:.\Source\rte/sc_clock.h ****  *  Definition of function types for driver interfaces.
  37:.\Source\rte/sc_clock.h ****  *  I-Port
  38:.\Source\rte/sc_clock.h ****  */
  39:.\Source\rte/sc_clock.h **** typedef RC_t (*SC_CLOCK_driverIn_t)(SC_CLOCK_data_t * const);
  40:.\Source\rte/sc_clock.h **** 
  41:.\Source\rte/sc_clock.h **** /**
  42:.\Source\rte/sc_clock.h ****  *  Definition of function types for driver interfaces.
  43:.\Source\rte/sc_clock.h ****  *  O-Port
  44:.\Source\rte/sc_clock.h ****  */
  45:.\Source\rte/sc_clock.h **** typedef RC_t (*SC_CLOCK_driverOut_t)( const SC_CLOCK_data_t * const);
  46:.\Source\rte/sc_clock.h **** 
  47:.\Source\rte/sc_clock.h **** 
  48:.\Source\rte/sc_clock.h **** /**************************************************************************************************
  49:.\Source\rte/sc_clock.h **** /* The signal configuration API block																				*/
  50:.\Source\rte/sc_clock.h **** /**************************************************************************************************
  51:.\Source\rte/sc_clock.h **** 
  52:.\Source\rte/sc_clock.h **** /**
  53:.\Source\rte/sc_clock.h ****  * Instances of the struct SC_CLOCK_cfg_t represent the signal object configuration.
  54:.\Source\rte/sc_clock.h ****  */
  55:.\Source\rte/sc_clock.h **** struct SC_CLOCK_cfg_s
  56:.\Source\rte/sc_clock.h **** {
  57:.\Source\rte/sc_clock.h ****     /**
  58:.\Source\rte/sc_clock.h ****      * Function pointer to the input driver
  59:.\Source\rte/sc_clock.h ****      */
  60:.\Source\rte/sc_clock.h ****     SC_CLOCK_driverIn_t const inDriver;
  61:.\Source\rte/sc_clock.h **** 
  62:.\Source\rte/sc_clock.h ****     /**
  63:.\Source\rte/sc_clock.h ****      * Function pointer to the output driver table
  64:.\Source\rte/sc_clock.h ****      */
  65:.\Source\rte/sc_clock.h ****    SC_CLOCK_driverOut_t const outDriver;
  66:.\Source\rte/sc_clock.h ****    
  67:.\Source\rte/sc_clock.h ****     /**
  68:.\Source\rte/sc_clock.h ****      * Event onUpdate
  69:.\Source\rte/sc_clock.h ****      */
  70:.\Source\rte/sc_clock.h ****     EventMaskType const evOnUpdate;
  71:.\Source\rte/sc_clock.h ****     
  72:.\Source\rte/sc_clock.h ****     
  73:.\Source\rte/sc_clock.h ****     /**
  74:.\Source\rte/sc_clock.h ****      * Event onError
  75:.\Source\rte/sc_clock.h ****      */
  76:.\Source\rte/sc_clock.h ****     EventMaskType const evOnError;
  77:.\Source\rte/sc_clock.h ****     
  78:.\Source\rte/sc_clock.h ****     /**
  79:.\Source\rte/sc_clock.h ****      * Task Count onUpdate
ARM GAS  C:\Users\mau_g\AppData\Local\Temp\ccUsGJqR.s 			page 7


  80:.\Source\rte/sc_clock.h ****      */
  81:.\Source\rte/sc_clock.h ****     size_t const onUpdateTaskCount;
  82:.\Source\rte/sc_clock.h **** 
  83:.\Source\rte/sc_clock.h ****     /**
  84:.\Source\rte/sc_clock.h ****      * Task List onUpdate
  85:.\Source\rte/sc_clock.h ****      */
  86:.\Source\rte/sc_clock.h ****     TaskTypeArray* const onUpdateTasks;
  87:.\Source\rte/sc_clock.h ****     
  88:.\Source\rte/sc_clock.h ****     /**
  89:.\Source\rte/sc_clock.h ****      * Task Count onError
  90:.\Source\rte/sc_clock.h ****      */
  91:.\Source\rte/sc_clock.h ****     size_t const onErrorTaskCount;
  92:.\Source\rte/sc_clock.h **** 
  93:.\Source\rte/sc_clock.h ****     /**
  94:.\Source\rte/sc_clock.h ****      * Task List onError
  95:.\Source\rte/sc_clock.h ****      */
  96:.\Source\rte/sc_clock.h ****     TaskTypeArray* const onErrorTasks;
  97:.\Source\rte/sc_clock.h **** 	
  98:.\Source\rte/sc_clock.h **** 	
  99:.\Source\rte/sc_clock.h **** 	/**
 100:.\Source\rte/sc_clock.h **** 	 * Ressourse is active? We need an additional boolean as a ressource value 0 is valid.
 101:.\Source\rte/sc_clock.h **** 	 */
 102:.\Source\rte/sc_clock.h **** 	 boolean_t const resourceActive;
 103:.\Source\rte/sc_clock.h **** 	 
 104:.\Source\rte/sc_clock.h **** 	/**
 105:.\Source\rte/sc_clock.h **** 	 * Ressourse 
 106:.\Source\rte/sc_clock.h **** 	 */
 107:.\Source\rte/sc_clock.h **** 	 ResourceType const resource;
 108:.\Source\rte/sc_clock.h **** 
 109:.\Source\rte/sc_clock.h **** };                                                                                                 
 110:.\Source\rte/sc_clock.h **** typedef const struct SC_CLOCK_cfg_s SC_CLOCK_cfg_t;
 111:.\Source\rte/sc_clock.h ****                               
 112:.\Source\rte/sc_clock.h **** /**************************************************************************************************
 113:.\Source\rte/sc_clock.h **** /* The data interface block																							*/
 114:.\Source\rte/sc_clock.h **** /**************************************************************************************************
 115:.\Source\rte/sc_clock.h **** 
 116:.\Source\rte/sc_clock.h ****                                                                                                    
 117:.\Source\rte/sc_clock.h **** 							  
 118:.\Source\rte/sc_clock.h **** /**
 119:.\Source\rte/sc_clock.h ****  * Instances of the struct SC_CLOCK_t represent the signal objects.
 120:.\Source\rte/sc_clock.h ****  * A signal object contains the current application value 'value' as well as relevant meta data.
 121:.\Source\rte/sc_clock.h ****  */
 122:.\Source\rte/sc_clock.h **** struct SC_CLOCK_s
 123:.\Source\rte/sc_clock.h **** {                                                                                                  
 124:.\Source\rte/sc_clock.h **** 
 125:.\Source\rte/sc_clock.h **** 	/**
 126:.\Source\rte/sc_clock.h **** 	 * Data buffer for the application value
 127:.\Source\rte/sc_clock.h **** 	 */
 128:.\Source\rte/sc_clock.h ****     SC_CLOCK_data_t value;
 129:.\Source\rte/sc_clock.h **** 
 130:.\Source\rte/sc_clock.h ****     /**
 131:.\Source\rte/sc_clock.h ****      * Current signal status
 132:.\Source\rte/sc_clock.h ****      */
 133:.\Source\rte/sc_clock.h ****     RTE_signalStatus_t status;
 134:.\Source\rte/sc_clock.h **** 
 135:.\Source\rte/sc_clock.h ****     /**
 136:.\Source\rte/sc_clock.h ****      * Current age of the signal (in calling cycles)
ARM GAS  C:\Users\mau_g\AppData\Local\Temp\ccUsGJqR.s 			page 8


 137:.\Source\rte/sc_clock.h ****      */
 138:.\Source\rte/sc_clock.h ****     uint32_t age;
 139:.\Source\rte/sc_clock.h **** 
 140:.\Source\rte/sc_clock.h ****     /**
 141:.\Source\rte/sc_clock.h ****      * Pointer to the signal configuration
 142:.\Source\rte/sc_clock.h ****      */
 143:.\Source\rte/sc_clock.h **** 	const SC_CLOCK_cfg_t * const    pSigCfg;
 144:.\Source\rte/sc_clock.h **** 
 145:.\Source\rte/sc_clock.h **** };                                                                                                 
 146:.\Source\rte/sc_clock.h **** typedef struct SC_CLOCK_s SC_CLOCK_t;
 147:.\Source\rte/sc_clock.h **** 
 148:.\Source\rte/sc_clock.h **** /**************************************************************************************************
 149:.\Source\rte/sc_clock.h **** /* Signal initialisation   																							*/
 150:.\Source\rte/sc_clock.h **** /**************************************************************************************************
 151:.\Source\rte/sc_clock.h **** 
 152:.\Source\rte/sc_clock.h **** /**
 153:.\Source\rte/sc_clock.h ****  * Initializes a signal instance with a passed init value.
 154:.\Source\rte/sc_clock.h ****  * Depending on the configured conversion or scaling function the raw_value will be calculated.
 155:.\Source\rte/sc_clock.h ****  * Signal status will change from RTE_SIGNALSTATUS_STARTUP to RTE_SIGNALSTATUS_INITIALIZED.
 156:.\Source\rte/sc_clock.h ****  *
 157:.\Source\rte/sc_clock.h ****  * @param  SC_CLOCK_t * const signal: Pointer to the signal object which will be initialised
 158:.\Source\rte/sc_clock.h ****  * @param const sc_clock_data_t * const value: Pointer to initial value of the application data
 159:.\Source\rte/sc_clock.h ****  * @return RC_t: standard return code, currently only RC_SUCCESS
 160:.\Source\rte/sc_clock.h ****  *
 161:.\Source\rte/sc_clock.h ****  **/
 162:.\Source\rte/sc_clock.h **** inline RC_t RTE_SC_CLOCK_init( SC_CLOCK_t * const signal, const SC_CLOCK_data_t * const value )
 163:.\Source\rte/sc_clock.h **** {                                                                                                  
 164:.\Source\rte/sc_clock.h **** 
 165:.\Source\rte/sc_clock.h ****    RC_t ret = RC_SUCCESS;
 166:.\Source\rte/sc_clock.h **** 
 167:.\Source\rte/sc_clock.h ****    //Set value and raw value
 168:.\Source\rte/sc_clock.h ****    signal->value  = *value;
 169:.\Source\rte/sc_clock.h ****    signal->age    = 0;
 170:.\Source\rte/sc_clock.h ****    signal->status = RTE_SIGNALSTATUS_INITIALIZED;
 171:.\Source\rte/sc_clock.h **** 
 172:.\Source\rte/sc_clock.h ****    return ret;
 173:.\Source\rte/sc_clock.h **** }
 174:.\Source\rte/sc_clock.h **** 
 175:.\Source\rte/sc_clock.h **** /**************************************************************************************************
 176:.\Source\rte/sc_clock.h **** /* Status and timeout control																						*/
 177:.\Source\rte/sc_clock.h **** /**************************************************************************************************
 178:.\Source\rte/sc_clock.h **** 
 179:.\Source\rte/sc_clock.h **** /**
 180:.\Source\rte/sc_clock.h ****  *  Returns the current signal status of the passed signal instance.
 181:.\Source\rte/sc_clock.h ****  *
 182:.\Source\rte/sc_clock.h ****  * @param  SC_CLOCK_t * const signal: Pointer to the signal object
 183:.\Source\rte/sc_clock.h ****  * @return  sig_status_t: The current signal status
 184:.\Source\rte/sc_clock.h ****  *
 185:.\Source\rte/sc_clock.h ****  **/
 186:.\Source\rte/sc_clock.h **** inline RTE_signalStatus_t RTE_SC_CLOCK_getStatus( const SC_CLOCK_t * const signal )
 187:.\Source\rte/sc_clock.h **** {
 188:.\Source\rte/sc_clock.h ****    return signal->status;
 189:.\Source\rte/sc_clock.h **** }
 190:.\Source\rte/sc_clock.h **** 
 191:.\Source\rte/sc_clock.h **** 
 192:.\Source\rte/sc_clock.h **** /**
 193:.\Source\rte/sc_clock.h ****  *  Sets a new signal status of the passed signal instance by passing the new status.
ARM GAS  C:\Users\mau_g\AppData\Local\Temp\ccUsGJqR.s 			page 9


 194:.\Source\rte/sc_clock.h ****  *
 195:.\Source\rte/sc_clock.h ****  * @param  SC_CLOCK_t * const signal: Pointer to the signal object
 196:.\Source\rte/sc_clock.h ****  * @param  const sig_status_t status: New signal status
 197:.\Source\rte/sc_clock.h ****  * @return RC_t: standard return code, currently only RC_SUCCESS
 198:.\Source\rte/sc_clock.h ****  *
 199:.\Source\rte/sc_clock.h ****  */
 200:.\Source\rte/sc_clock.h **** inline RC_t RTE_SC_CLOCK_setStatus( SC_CLOCK_t * const signal, const RTE_signalStatus_t status )
 201:.\Source\rte/sc_clock.h **** {
 202:.\Source\rte/sc_clock.h ****    signal->status = status;
 203:.\Source\rte/sc_clock.h ****    size_t taskNum=0;
 204:.\Source\rte/sc_clock.h ****    
 205:.\Source\rte/sc_clock.h ****    //Fire error events in case of invalid state
 206:.\Source\rte/sc_clock.h ****    if (signal->status == RTE_SIGNALSTATUS_INVALID)
 207:.\Source\rte/sc_clock.h ****    {
 208:.\Source\rte/sc_clock.h **** 	    //Pointer to the Taskarray, containing the tasks receiving the onUpdate events
 209:.\Source\rte/sc_clock.h **** 		TaskTypeArray* pTaskArray = signal->pSigCfg->onErrorTasks;
 210:.\Source\rte/sc_clock.h **** 
 211:.\Source\rte/sc_clock.h **** 		if (NULL!=signal->pSigCfg->evOnError && NULL != pTaskArray){
 212:.\Source\rte/sc_clock.h **** 			for( taskNum=0 ; taskNum < signal->pSigCfg->onErrorTaskCount ;taskNum++){
 213:.\Source\rte/sc_clock.h **** 				TaskType task = (*pTaskArray)[taskNum];
 214:.\Source\rte/sc_clock.h **** 				SetEvent( task, signal->pSigCfg->evOnError);
 215:.\Source\rte/sc_clock.h **** 			}
 216:.\Source\rte/sc_clock.h **** 		}
 217:.\Source\rte/sc_clock.h ****    }
 218:.\Source\rte/sc_clock.h ****    
 219:.\Source\rte/sc_clock.h ****    return RC_SUCCESS;
 220:.\Source\rte/sc_clock.h **** }
 221:.\Source\rte/sc_clock.h **** 
 222:.\Source\rte/sc_clock.h **** 
 223:.\Source\rte/sc_clock.h **** /**
 224:.\Source\rte/sc_clock.h ****  * Returns the count of refreshing trials (refresh, set or set_raw) that failed.
 225:.\Source\rte/sc_clock.h ****  * Prerquisite: The signal is refreshed cyclically
 226:.\Source\rte/sc_clock.h ****  *
 227:.\Source\rte/sc_clock.h ****  * @param  SC_CLOCK_t * const signal: Pointer to the signal object
 228:.\Source\rte/sc_clock.h ****  * @return uint32_t: Number of cycles since the signal has been updated for the last time
 229:.\Source\rte/sc_clock.h ****  */
 230:.\Source\rte/sc_clock.h **** inline uint32_t RTE_SC_CLOCK_getAge( const SC_CLOCK_t * const signal )
 231:.\Source\rte/sc_clock.h **** {
 232:.\Source\rte/sc_clock.h ****    return signal->age;
 233:.\Source\rte/sc_clock.h **** }
 234:.\Source\rte/sc_clock.h **** 
 235:.\Source\rte/sc_clock.h **** /**
 236:.\Source\rte/sc_clock.h ****  * Should be called by application or driver if no new value can be provided.
 237:.\Source\rte/sc_clock.h ****  * @param  SC_CLOCK_t * const signal: Pointer to the signal object
 238:.\Source\rte/sc_clock.h ****  * @param uint32_t increment: incrementvalue, typically in [ms]
 239:.\Source\rte/sc_clock.h ****  * @return void
 240:.\Source\rte/sc_clock.h ****  */
 241:.\Source\rte/sc_clock.h **** inline void RTE_SC_CLOCK_incAge(  SC_CLOCK_t * const signal , uint32_t increment)
 242:.\Source\rte/sc_clock.h **** {
 243:.\Source\rte/sc_clock.h **** 	   //Hack....
 244:.\Source\rte/sc_clock.h **** 	   if ( 0xFFFF0000 > (signal->age + increment) )
 245:.\Source\rte/sc_clock.h **** 	   {
 246:.\Source\rte/sc_clock.h **** 	      signal->age += increment;
 247:.\Source\rte/sc_clock.h **** 	   }
 248:.\Source\rte/sc_clock.h **** }
 249:.\Source\rte/sc_clock.h **** 
 250:.\Source\rte/sc_clock.h **** 
ARM GAS  C:\Users\mau_g\AppData\Local\Temp\ccUsGJqR.s 			page 10


 251:.\Source\rte/sc_clock.h **** /**************************************************************************************************
 252:.\Source\rte/sc_clock.h **** /* Application Data read/write Interface																			*/
 253:.\Source\rte/sc_clock.h **** /**************************************************************************************************
 254:.\Source\rte/sc_clock.h **** 
 255:.\Source\rte/sc_clock.h **** /**
 256:.\Source\rte/sc_clock.h ****  * Returns the current application value of the passed signal instance.
 257:.\Source\rte/sc_clock.h ****  *
 258:.\Source\rte/sc_clock.h ****  * @param  SC_CLOCK_t * const signal: Pointer to the signal object
 259:.\Source\rte/sc_clock.h ****  * @return sc_clock_data_t: current value of the application data buffer
 260:.\Source\rte/sc_clock.h ****  *
 261:.\Source\rte/sc_clock.h ****  **/
 262:.\Source\rte/sc_clock.h **** inline SC_CLOCK_data_t RTE_SC_CLOCK_get( const SC_CLOCK_t * const signal )
 263:.\Source\rte/sc_clock.h **** {               
 264:.\Source\rte/sc_clock.h ****    //Todo: Critical region cannot be protected using return values																						
 265:.\Source\rte/sc_clock.h ****    return signal->value;                                                                           
  45              		.loc 2 265 0
  46 000a 324A     		ldr	r2, .L13+4
  47 000c 03AB     		add	r3, sp, #12
  48 000e 07CA     		ldmia	r2, {r0, r1, r2}
  49 0010 03C3     		stmia	r3!, {r0, r1}
  50 0012 1A70     		strb	r2, [r3]
  51              	.LVL1:
  52              	.LBE28:
  53              	.LBE27:
 220:clock_type.c  ****     
 221:clock_type.c  ****     SC_CLOCK_data_t localClock = RTE_SC_CLOCK_get(&SO_CLOCK_signal);
 222:clock_type.c  ****     
 223:clock_type.c  ****     if(CLOCK_hour_widget == localClock.m_activeWidget && localClock.m_minutes.m_currentValue == loc
  54              		.loc 1 223 0
  55 0014 9DF80C30 		ldrb	r3, [sp, #12]	@ zero_extendqisi2
  56 0018 012B     		cmp	r3, #1
  57 001a 13D1     		bne	.L2
  58              		.loc 1 223 0 is_stmt 0 discriminator 1
  59 001c 9DF81110 		ldrb	r1, [sp, #17]	@ zero_extendqisi2
  60 0020 9DF81220 		ldrb	r2, [sp, #18]	@ zero_extendqisi2
  61 0024 9142     		cmp	r1, r2
  62 0026 0DD1     		bne	.L2
 224:clock_type.c  ****     {
 225:clock_type.c  ****         if(localClock.m_hours.m_currentValue < localClock.m_hours.m_maxValue) 
  63              		.loc 1 225 0 is_stmt 1
  64 0028 9DF80D30 		ldrb	r3, [sp, #13]	@ zero_extendqisi2
  65 002c 9DF80E20 		ldrb	r2, [sp, #14]	@ zero_extendqisi2
  66 0030 9342     		cmp	r3, r2
  67 0032 03D2     		bcs	.L3
 226:clock_type.c  ****         {
 227:clock_type.c  ****             localClock.m_hours.m_currentValue++;
  68              		.loc 1 227 0
  69 0034 0133     		adds	r3, r3, #1
  70 0036 8DF80D30 		strb	r3, [sp, #13]
  71 003a 12E0     		b	.L4
  72              	.L3:
 228:clock_type.c  ****         }
 229:clock_type.c  ****         else 
 230:clock_type.c  ****         {
 231:clock_type.c  ****             localClock.m_hours.m_currentValue = 0;
  73              		.loc 1 231 0
  74 003c 0023     		movs	r3, #0
ARM GAS  C:\Users\mau_g\AppData\Local\Temp\ccUsGJqR.s 			page 11


  75 003e 8DF80D30 		strb	r3, [sp, #13]
  76 0042 0EE0     		b	.L4
  77              	.L2:
 232:clock_type.c  ****         }
 233:clock_type.c  ****     }
 234:clock_type.c  ****     else if (CLOCK_minute_widget == localClock.m_activeWidget)
  78              		.loc 1 234 0
  79 0044 022B     		cmp	r3, #2
  80 0046 0CD1     		bne	.L4
 235:clock_type.c  ****     {
 236:clock_type.c  ****         if(localClock.m_minutes.m_currentValue < localClock.m_minutes.m_maxValue) 
  81              		.loc 1 236 0
  82 0048 9DF81130 		ldrb	r3, [sp, #17]	@ zero_extendqisi2
  83 004c 9DF81220 		ldrb	r2, [sp, #18]	@ zero_extendqisi2
  84 0050 9342     		cmp	r3, r2
  85 0052 03D2     		bcs	.L5
 237:clock_type.c  ****         {
 238:clock_type.c  ****             localClock.m_minutes.m_currentValue++;
  86              		.loc 1 238 0
  87 0054 0133     		adds	r3, r3, #1
  88 0056 8DF81130 		strb	r3, [sp, #17]
  89 005a 02E0     		b	.L4
  90              	.L5:
 239:clock_type.c  ****         }
 240:clock_type.c  ****         else 
 241:clock_type.c  ****         {
 242:clock_type.c  ****             localClock.m_minutes.m_currentValue = 0;
  91              		.loc 1 242 0
  92 005c 0023     		movs	r3, #0
  93 005e 8DF81130 		strb	r3, [sp, #17]
  94              	.L4:
  95              	.LVL2:
  96 0062 6B46     		mov	r3, sp
  97 0064 06AA     		add	r2, sp, #24
  98 0066 12E90700 		ldmdb	r2, {r0, r1, r2}
  99 006a 03C3     		stmia	r3!, {r0, r1}
 100 006c 1A70     		strb	r2, [r3]
 101              	.LVL3:
 102              	.LBB29:
 103              	.LBB30:
 266:.\Source\rte/sc_clock.h **** }                                                                                                  
 267:.\Source\rte/sc_clock.h ****                                                                                                    
 268:.\Source\rte/sc_clock.h **** /**
 269:.\Source\rte/sc_clock.h ****  * Returns the current application value of the passed signal instance threadsafe.
 270:.\Source\rte/sc_clock.h ****  *
 271:.\Source\rte/sc_clock.h ****  * @param  SC_CLOCK_t * const signal: Pointer to the signal object
 272:.\Source\rte/sc_clock.h ****  * @param  SC_CLOCK_data_t* data: Pointer to the return data Pointer to the signal object
 273:.\Source\rte/sc_clock.h ****  * @return RC_SUCCESS
 274:.\Source\rte/sc_clock.h ****  *
 275:.\Source\rte/sc_clock.h ****  **/
 276:.\Source\rte/sc_clock.h **** inline RC_t RTE_SC_CLOCK_getThreadSafe( const SC_CLOCK_t * const signal, SC_CLOCK_data_t * const da
 277:.\Source\rte/sc_clock.h **** {    
 278:.\Source\rte/sc_clock.h ****    if (TRUE == signal->pSigCfg->resourceActive) GetResource(signal->pSigCfg->resource);
 279:.\Source\rte/sc_clock.h ****    *data = signal->value;
 280:.\Source\rte/sc_clock.h ****    if (TRUE == signal->pSigCfg->resourceActive) ReleaseResource(signal->pSigCfg->resource);        
 281:.\Source\rte/sc_clock.h **** 
 282:.\Source\rte/sc_clock.h ****    return RC_SUCCESS;                                                                   
ARM GAS  C:\Users\mau_g\AppData\Local\Temp\ccUsGJqR.s 			page 12


 283:.\Source\rte/sc_clock.h ****    
 284:.\Source\rte/sc_clock.h **** }                                                                                                  
 285:.\Source\rte/sc_clock.h ****                                                                                                    
 286:.\Source\rte/sc_clock.h **** /**
 287:.\Source\rte/sc_clock.h ****  * Sets a new application value to the passed signal instance by passing the new value.
 288:.\Source\rte/sc_clock.h ****  * The corresponding driver raw value will be calculated immediately by using the default conversio
 289:.\Source\rte/sc_clock.h ****  * signal specific scaling function.
 290:.\Source\rte/sc_clock.h ****  * The signal age will be set to 0 and the new status will be 'RTE_SIGNALSTATUS_VALID'.
 291:.\Source\rte/sc_clock.h ****  *
 292:.\Source\rte/sc_clock.h ****  * @param  SC_CLOCK_t * const signal: Pointer to the signal object
 293:.\Source\rte/sc_clock.h ****  * @param  sc_clock_data_t const value: value for the application data buffer
 294:.\Source\rte/sc_clock.h ****  * @return RC_t: standard return code, currently only RC_SUCCESS
 295:.\Source\rte/sc_clock.h ****  *
 296:.\Source\rte/sc_clock.h ****  **/
 297:.\Source\rte/sc_clock.h **** inline RC_t RTE_SC_CLOCK_set(SC_CLOCK_t * const signal, const SC_CLOCK_data_t value  )
 298:.\Source\rte/sc_clock.h **** {
 299:.\Source\rte/sc_clock.h **** 
 300:.\Source\rte/sc_clock.h ****    RC_t ret = RC_SUCCESS;
 301:.\Source\rte/sc_clock.h ****    size_t taskNum=0;
 302:.\Source\rte/sc_clock.h **** 
 303:.\Source\rte/sc_clock.h **** 
 304:.\Source\rte/sc_clock.h ****    if (TRUE == signal->pSigCfg->resourceActive) GetResource(signal->pSigCfg->resource);
 104              		.loc 2 304 0
 105 006e 194B     		ldr	r3, .L13+4
 106 0070 1B69     		ldr	r3, [r3, #16]
 107 0072 93F82020 		ldrb	r2, [r3, #32]	@ zero_extendqisi2
 108 0076 012A     		cmp	r2, #1
 109 0078 02D1     		bne	.L6
 110 007a 586A     		ldr	r0, [r3, #36]
 111 007c FFF7FEFF 		bl	EE_oo_GetResource
 112              	.LVL4:
 113              	.L6:
 305:.\Source\rte/sc_clock.h ****    signal->value  = value;
 114              		.loc 2 305 0
 115 0080 144C     		ldr	r4, .L13+4
 116 0082 2346     		mov	r3, r4
 117 0084 9DE80700 		ldmia	sp, {r0, r1, r2}
 118 0088 03C3     		stmia	r3!, {r0, r1}
 119 008a 1A70     		strb	r2, [r3]
 306:.\Source\rte/sc_clock.h ****    signal->age    = 0;
 120              		.loc 2 306 0
 121 008c 0023     		movs	r3, #0
 122 008e E360     		str	r3, [r4, #12]
 307:.\Source\rte/sc_clock.h ****    signal->status = RTE_SIGNALSTATUS_VALID;
 123              		.loc 2 307 0
 124 0090 0223     		movs	r3, #2
 125 0092 6372     		strb	r3, [r4, #9]
 308:.\Source\rte/sc_clock.h ****    if (TRUE == signal->pSigCfg->resourceActive) ReleaseResource(signal->pSigCfg->resource);
 126              		.loc 2 308 0
 127 0094 2369     		ldr	r3, [r4, #16]
 128 0096 93F82020 		ldrb	r2, [r3, #32]	@ zero_extendqisi2
 129 009a 012A     		cmp	r2, #1
 130 009c 02D1     		bne	.L7
 131 009e 586A     		ldr	r0, [r3, #36]
 132 00a0 FFF7FEFF 		bl	EE_oo_ReleaseResource
 133              	.LVL5:
 134              	.L7:
ARM GAS  C:\Users\mau_g\AppData\Local\Temp\ccUsGJqR.s 			page 13


 309:.\Source\rte/sc_clock.h **** 
 310:.\Source\rte/sc_clock.h ****    //Pointer to the Taskarray, containing the tasks receiving the onUpdate events
 311:.\Source\rte/sc_clock.h ****    TaskTypeArray* pTaskArray = signal->pSigCfg->onUpdateTasks;
 135              		.loc 2 311 0
 136 00a4 0B4B     		ldr	r3, .L13+4
 137 00a6 1B69     		ldr	r3, [r3, #16]
 138 00a8 5D69     		ldr	r5, [r3, #20]
 139              	.LVL6:
 312:.\Source\rte/sc_clock.h **** 
 313:.\Source\rte/sc_clock.h ****    if (NULL!=signal->pSigCfg->evOnUpdate && NULL != pTaskArray){
 140              		.loc 2 313 0
 141 00aa 9B68     		ldr	r3, [r3, #8]
 142 00ac 73B1     		cbz	r3, .L1
 143 00ae 3DB9     		cbnz	r5, .L11
 144 00b0 0CE0     		b	.L1
 145              	.LVL7:
 146              	.L10:
 147              	.LBB31:
 314:.\Source\rte/sc_clock.h ****       for( taskNum=0 ; taskNum < signal->pSigCfg->onUpdateTaskCount ;taskNum++){
 315:.\Source\rte/sc_clock.h **** 		  
 316:.\Source\rte/sc_clock.h ****           TaskType task = (*pTaskArray)[taskNum];
 317:.\Source\rte/sc_clock.h **** 	      SetEvent( task, signal->pSigCfg->evOnUpdate);
 148              		.loc 2 317 0
 149 00b2 9968     		ldr	r1, [r3, #8]
 150 00b4 55F82400 		ldr	r0, [r5, r4, lsl #2]
 151 00b8 FFF7FEFF 		bl	EE_oo_SetEvent
 152              	.LVL8:
 153              	.LBE31:
 314:.\Source\rte/sc_clock.h ****       for( taskNum=0 ; taskNum < signal->pSigCfg->onUpdateTaskCount ;taskNum++){
 154              		.loc 2 314 0
 155 00bc 0134     		adds	r4, r4, #1
 156              	.LVL9:
 157 00be 00E0     		b	.L9
 158              	.LVL10:
 159              	.L11:
 313:.\Source\rte/sc_clock.h ****       for( taskNum=0 ; taskNum < signal->pSigCfg->onUpdateTaskCount ;taskNum++){
 160              		.loc 2 313 0
 161 00c0 0024     		movs	r4, #0
 162              	.LVL11:
 163              	.L9:
 314:.\Source\rte/sc_clock.h ****       for( taskNum=0 ; taskNum < signal->pSigCfg->onUpdateTaskCount ;taskNum++){
 164              		.loc 2 314 0
 165 00c2 044B     		ldr	r3, .L13+4
 166 00c4 1B69     		ldr	r3, [r3, #16]
 167 00c6 1A69     		ldr	r2, [r3, #16]
 168 00c8 9442     		cmp	r4, r2
 169 00ca F2D3     		bcc	.L10
 170              	.LVL12:
 171              	.L1:
 172              	.LBE30:
 173              	.LBE29:
 243:clock_type.c  ****         }
 244:clock_type.c  ****     }
 245:clock_type.c  ****     else
 246:clock_type.c  ****     {
 247:clock_type.c  ****         //Intended to do nothing
 248:clock_type.c  ****     }
ARM GAS  C:\Users\mau_g\AppData\Local\Temp\ccUsGJqR.s 			page 14


 249:clock_type.c  ****     
 250:clock_type.c  ****     RTE_SC_CLOCK_set(&SO_CLOCK_signal, localClock);
 251:clock_type.c  **** }
 174              		.loc 1 251 0
 175 00cc 07B0     		add	sp, sp, #28
 176              		.cfi_def_cfa_offset 12
 177              		@ sp needed
 178 00ce 30BD     		pop	{r4, r5, pc}
 179              	.LVL13:
 180              	.L14:
 181              		.align	2
 182              	.L13:
 183 00d0 00000000 		.word	.LC0
 184 00d4 00000000 		.word	SO_CLOCK_signal
 185              		.cfi_endproc
 186              	.LFE154:
 187              		.size	CLOCK_updateTime, .-CLOCK_updateTime
 188              		.section	.text.CLOCK_setEditFonts,"ax",%progbits
 189              		.align	2
 190              		.thumb
 191              		.thumb_func
 192              		.type	CLOCK_setEditFonts, %function
 193              	CLOCK_setEditFonts:
 194              	.LFB151:
 137:clock_type.c  ****     UART_LOG_PutString("Set Edit Fonts \n");
 195              		.loc 1 137 0
 196              		.cfi_startproc
 197              		@ args = 0, pretend = 0, frame = 24
 198              		@ frame_needed = 0, uses_anonymous_args = 0
 199 0000 30B5     		push	{r4, r5, lr}
 200              		.cfi_def_cfa_offset 12
 201              		.cfi_offset 4, -12
 202              		.cfi_offset 5, -8
 203              		.cfi_offset 14, -4
 204 0002 87B0     		sub	sp, sp, #28
 205              		.cfi_def_cfa_offset 40
 138:clock_type.c  ****     
 206              		.loc 1 138 0
 207 0004 2848     		ldr	r0, .L25
 208 0006 FFF7FEFF 		bl	UART_LOG_PutString
 209              	.LVL14:
 210              	.LBB32:
 211              	.LBB33:
 265:.\Source\rte/sc_clock.h **** }                                                                                                  
 212              		.loc 2 265 0
 213 000a 284A     		ldr	r2, .L25+4
 214 000c 03AB     		add	r3, sp, #12
 215 000e 07CA     		ldmia	r2, {r0, r1, r2}
 216 0010 03C3     		stmia	r3!, {r0, r1}
 217 0012 1A70     		strb	r2, [r3]
 218              	.LVL15:
 219              	.LBE33:
 220              	.LBE32:
 142:clock_type.c  ****         
 221              		.loc 1 142 0
 222 0014 9DF80C30 		ldrb	r3, [sp, #12]	@ zero_extendqisi2
 223 0018 012B     		cmp	r3, #1
ARM GAS  C:\Users\mau_g\AppData\Local\Temp\ccUsGJqR.s 			page 15


 224 001a 05D1     		bne	.L16
 144:clock_type.c  ****         
 225              		.loc 1 144 0
 226 001c 8DF81030 		strb	r3, [sp, #16]
 146:clock_type.c  ****     }
 227              		.loc 1 146 0
 228 0020 0023     		movs	r3, #0
 229 0022 8DF81430 		strb	r3, [sp, #20]
 230 0026 07E0     		b	.L17
 231              	.L16:
 148:clock_type.c  ****         
 232              		.loc 1 148 0
 233 0028 022B     		cmp	r3, #2
 234 002a 05D1     		bne	.L17
 150:clock_type.c  ****         
 235              		.loc 1 150 0
 236 002c 0023     		movs	r3, #0
 237 002e 8DF81030 		strb	r3, [sp, #16]
 152:clock_type.c  ****     }
 238              		.loc 1 152 0
 239 0032 0123     		movs	r3, #1
 240 0034 8DF81430 		strb	r3, [sp, #20]
 241              	.L17:
 242              	.LVL16:
 243 0038 6B46     		mov	r3, sp
 244 003a 06AA     		add	r2, sp, #24
 245 003c 12E90700 		ldmdb	r2, {r0, r1, r2}
 246 0040 03C3     		stmia	r3!, {r0, r1}
 247 0042 1A70     		strb	r2, [r3]
 248              	.LVL17:
 249              	.LBB34:
 250              	.LBB35:
 304:.\Source\rte/sc_clock.h ****    signal->value  = value;
 251              		.loc 2 304 0
 252 0044 194B     		ldr	r3, .L25+4
 253 0046 1B69     		ldr	r3, [r3, #16]
 254 0048 93F82020 		ldrb	r2, [r3, #32]	@ zero_extendqisi2
 255 004c 012A     		cmp	r2, #1
 256 004e 02D1     		bne	.L18
 257 0050 586A     		ldr	r0, [r3, #36]
 258 0052 FFF7FEFF 		bl	EE_oo_GetResource
 259              	.LVL18:
 260              	.L18:
 305:.\Source\rte/sc_clock.h ****    signal->age    = 0;
 261              		.loc 2 305 0
 262 0056 154C     		ldr	r4, .L25+4
 263 0058 2346     		mov	r3, r4
 264 005a 9DE80700 		ldmia	sp, {r0, r1, r2}
 265 005e 03C3     		stmia	r3!, {r0, r1}
 266 0060 1A70     		strb	r2, [r3]
 306:.\Source\rte/sc_clock.h ****    signal->status = RTE_SIGNALSTATUS_VALID;
 267              		.loc 2 306 0
 268 0062 0023     		movs	r3, #0
 269 0064 E360     		str	r3, [r4, #12]
 307:.\Source\rte/sc_clock.h ****    if (TRUE == signal->pSigCfg->resourceActive) ReleaseResource(signal->pSigCfg->resource);
 270              		.loc 2 307 0
 271 0066 0223     		movs	r3, #2
ARM GAS  C:\Users\mau_g\AppData\Local\Temp\ccUsGJqR.s 			page 16


 272 0068 6372     		strb	r3, [r4, #9]
 308:.\Source\rte/sc_clock.h **** 
 273              		.loc 2 308 0
 274 006a 2369     		ldr	r3, [r4, #16]
 275 006c 93F82020 		ldrb	r2, [r3, #32]	@ zero_extendqisi2
 276 0070 012A     		cmp	r2, #1
 277 0072 02D1     		bne	.L19
 278 0074 586A     		ldr	r0, [r3, #36]
 279 0076 FFF7FEFF 		bl	EE_oo_ReleaseResource
 280              	.LVL19:
 281              	.L19:
 311:.\Source\rte/sc_clock.h **** 
 282              		.loc 2 311 0
 283 007a 0C4B     		ldr	r3, .L25+4
 284 007c 1B69     		ldr	r3, [r3, #16]
 285 007e 5D69     		ldr	r5, [r3, #20]
 286              	.LVL20:
 313:.\Source\rte/sc_clock.h ****       for( taskNum=0 ; taskNum < signal->pSigCfg->onUpdateTaskCount ;taskNum++){
 287              		.loc 2 313 0
 288 0080 9B68     		ldr	r3, [r3, #8]
 289 0082 73B1     		cbz	r3, .L15
 290 0084 3DB9     		cbnz	r5, .L23
 291 0086 0CE0     		b	.L15
 292              	.LVL21:
 293              	.L22:
 294              	.LBB36:
 295              		.loc 2 317 0
 296 0088 9968     		ldr	r1, [r3, #8]
 297 008a 55F82400 		ldr	r0, [r5, r4, lsl #2]
 298 008e FFF7FEFF 		bl	EE_oo_SetEvent
 299              	.LVL22:
 300              	.LBE36:
 314:.\Source\rte/sc_clock.h **** 		  
 301              		.loc 2 314 0
 302 0092 0134     		adds	r4, r4, #1
 303              	.LVL23:
 304 0094 00E0     		b	.L21
 305              	.LVL24:
 306              	.L23:
 313:.\Source\rte/sc_clock.h ****       for( taskNum=0 ; taskNum < signal->pSigCfg->onUpdateTaskCount ;taskNum++){
 307              		.loc 2 313 0
 308 0096 0024     		movs	r4, #0
 309              	.LVL25:
 310              	.L21:
 314:.\Source\rte/sc_clock.h **** 		  
 311              		.loc 2 314 0
 312 0098 044B     		ldr	r3, .L25+4
 313 009a 1B69     		ldr	r3, [r3, #16]
 314 009c 1A69     		ldr	r2, [r3, #16]
 315 009e 9442     		cmp	r4, r2
 316 00a0 F2D3     		bcc	.L22
 317              	.LVL26:
 318              	.L15:
 319              	.LBE35:
 320              	.LBE34:
 160:clock_type.c  **** 
 321              		.loc 1 160 0
ARM GAS  C:\Users\mau_g\AppData\Local\Temp\ccUsGJqR.s 			page 17


 322 00a2 07B0     		add	sp, sp, #28
 323              		.cfi_def_cfa_offset 12
 324              		@ sp needed
 325 00a4 30BD     		pop	{r4, r5, pc}
 326              	.LVL27:
 327              	.L26:
 328 00a6 00BF     		.align	2
 329              	.L25:
 330 00a8 10000000 		.word	.LC1
 331 00ac 00000000 		.word	SO_CLOCK_signal
 332              		.cfi_endproc
 333              	.LFE151:
 334              		.size	CLOCK_setEditFonts, .-CLOCK_setEditFonts
 335              		.section	.text.CLOCK_setDisplayFonts,"ax",%progbits
 336              		.align	2
 337              		.thumb
 338              		.thumb_func
 339              		.type	CLOCK_setDisplayFonts, %function
 340              	CLOCK_setDisplayFonts:
 341              	.LFB152:
 165:clock_type.c  ****     UART_LOG_PutString("Set Display Fonts \n");
 342              		.loc 1 165 0
 343              		.cfi_startproc
 344              		@ args = 0, pretend = 0, frame = 24
 345              		@ frame_needed = 0, uses_anonymous_args = 0
 346 0000 30B5     		push	{r4, r5, lr}
 347              		.cfi_def_cfa_offset 12
 348              		.cfi_offset 4, -12
 349              		.cfi_offset 5, -8
 350              		.cfi_offset 14, -4
 351 0002 87B0     		sub	sp, sp, #28
 352              		.cfi_def_cfa_offset 40
 166:clock_type.c  ****     
 353              		.loc 1 166 0
 354 0004 2148     		ldr	r0, .L35
 355 0006 FFF7FEFF 		bl	UART_LOG_PutString
 356              	.LVL28:
 357              	.LBB37:
 358              	.LBB38:
 265:.\Source\rte/sc_clock.h **** }                                                                                                  
 359              		.loc 2 265 0
 360 000a 214C     		ldr	r4, .L35+4
 361 000c 03AB     		add	r3, sp, #12
 362 000e 94E80700 		ldmia	r4, {r0, r1, r2}
 363 0012 03C3     		stmia	r3!, {r0, r1}
 364              	.LVL29:
 365              	.LBE38:
 366              	.LBE37:
 170:clock_type.c  ****     
 367              		.loc 1 170 0
 368 0014 0023     		movs	r3, #0
 369 0016 8DF81030 		strb	r3, [sp, #16]
 172:clock_type.c  ****     
 370              		.loc 1 172 0
 371 001a 8DF81430 		strb	r3, [sp, #20]
 372              	.LVL30:
 373 001e 6B46     		mov	r3, sp
ARM GAS  C:\Users\mau_g\AppData\Local\Temp\ccUsGJqR.s 			page 18


 374 0020 06AA     		add	r2, sp, #24
 375 0022 12E90700 		ldmdb	r2, {r0, r1, r2}
 376 0026 03C3     		stmia	r3!, {r0, r1}
 377 0028 1A70     		strb	r2, [r3]
 378              	.LVL31:
 379              	.LBB39:
 380              	.LBB40:
 304:.\Source\rte/sc_clock.h ****    signal->value  = value;
 381              		.loc 2 304 0
 382 002a 2369     		ldr	r3, [r4, #16]
 383 002c 93F82020 		ldrb	r2, [r3, #32]	@ zero_extendqisi2
 384 0030 012A     		cmp	r2, #1
 385 0032 02D1     		bne	.L28
 386 0034 586A     		ldr	r0, [r3, #36]
 387 0036 FFF7FEFF 		bl	EE_oo_GetResource
 388              	.LVL32:
 389              	.L28:
 305:.\Source\rte/sc_clock.h ****    signal->age    = 0;
 390              		.loc 2 305 0
 391 003a 154C     		ldr	r4, .L35+4
 392 003c 2346     		mov	r3, r4
 393 003e 9DE80700 		ldmia	sp, {r0, r1, r2}
 394 0042 03C3     		stmia	r3!, {r0, r1}
 395 0044 1A70     		strb	r2, [r3]
 306:.\Source\rte/sc_clock.h ****    signal->status = RTE_SIGNALSTATUS_VALID;
 396              		.loc 2 306 0
 397 0046 0023     		movs	r3, #0
 398 0048 E360     		str	r3, [r4, #12]
 307:.\Source\rte/sc_clock.h ****    if (TRUE == signal->pSigCfg->resourceActive) ReleaseResource(signal->pSigCfg->resource);
 399              		.loc 2 307 0
 400 004a 0223     		movs	r3, #2
 401 004c 6372     		strb	r3, [r4, #9]
 308:.\Source\rte/sc_clock.h **** 
 402              		.loc 2 308 0
 403 004e 2369     		ldr	r3, [r4, #16]
 404 0050 93F82020 		ldrb	r2, [r3, #32]	@ zero_extendqisi2
 405 0054 012A     		cmp	r2, #1
 406 0056 02D1     		bne	.L29
 407 0058 586A     		ldr	r0, [r3, #36]
 408 005a FFF7FEFF 		bl	EE_oo_ReleaseResource
 409              	.LVL33:
 410              	.L29:
 311:.\Source\rte/sc_clock.h **** 
 411              		.loc 2 311 0
 412 005e 0C4B     		ldr	r3, .L35+4
 413 0060 1B69     		ldr	r3, [r3, #16]
 414 0062 5D69     		ldr	r5, [r3, #20]
 415              	.LVL34:
 313:.\Source\rte/sc_clock.h ****       for( taskNum=0 ; taskNum < signal->pSigCfg->onUpdateTaskCount ;taskNum++){
 416              		.loc 2 313 0
 417 0064 9B68     		ldr	r3, [r3, #8]
 418 0066 73B1     		cbz	r3, .L27
 419 0068 3DB9     		cbnz	r5, .L33
 420 006a 0CE0     		b	.L27
 421              	.LVL35:
 422              	.L32:
 423              	.LBB41:
ARM GAS  C:\Users\mau_g\AppData\Local\Temp\ccUsGJqR.s 			page 19


 424              		.loc 2 317 0
 425 006c 9968     		ldr	r1, [r3, #8]
 426 006e 55F82400 		ldr	r0, [r5, r4, lsl #2]
 427 0072 FFF7FEFF 		bl	EE_oo_SetEvent
 428              	.LVL36:
 429              	.LBE41:
 314:.\Source\rte/sc_clock.h **** 		  
 430              		.loc 2 314 0
 431 0076 0134     		adds	r4, r4, #1
 432              	.LVL37:
 433 0078 00E0     		b	.L31
 434              	.LVL38:
 435              	.L33:
 313:.\Source\rte/sc_clock.h ****       for( taskNum=0 ; taskNum < signal->pSigCfg->onUpdateTaskCount ;taskNum++){
 436              		.loc 2 313 0
 437 007a 0024     		movs	r4, #0
 438              	.LVL39:
 439              	.L31:
 314:.\Source\rte/sc_clock.h **** 		  
 440              		.loc 2 314 0
 441 007c 044B     		ldr	r3, .L35+4
 442 007e 1B69     		ldr	r3, [r3, #16]
 443 0080 1A69     		ldr	r2, [r3, #16]
 444 0082 9442     		cmp	r4, r2
 445 0084 F2D3     		bcc	.L32
 446              	.LVL40:
 447              	.L27:
 448              	.LBE40:
 449              	.LBE39:
 176:clock_type.c  **** 
 450              		.loc 1 176 0
 451 0086 07B0     		add	sp, sp, #28
 452              		.cfi_def_cfa_offset 12
 453              		@ sp needed
 454 0088 30BD     		pop	{r4, r5, pc}
 455              	.LVL41:
 456              	.L36:
 457 008a 00BF     		.align	2
 458              	.L35:
 459 008c 24000000 		.word	.LC2
 460 0090 00000000 		.word	SO_CLOCK_signal
 461              		.cfi_endproc
 462              	.LFE152:
 463              		.size	CLOCK_setDisplayFonts, .-CLOCK_setDisplayFonts
 464              		.section	.text.CLOCK_incrementWidget,"ax",%progbits
 465              		.align	2
 466              		.thumb
 467              		.thumb_func
 468              		.type	CLOCK_incrementWidget, %function
 469              	CLOCK_incrementWidget:
 470              	.LFB153:
 181:clock_type.c  ****     UART_LOG_PutString("Increment Widget \n");
 471              		.loc 1 181 0
 472              		.cfi_startproc
 473              		@ args = 0, pretend = 0, frame = 24
 474              		@ frame_needed = 0, uses_anonymous_args = 0
 475 0000 30B5     		push	{r4, r5, lr}
ARM GAS  C:\Users\mau_g\AppData\Local\Temp\ccUsGJqR.s 			page 20


 476              		.cfi_def_cfa_offset 12
 477              		.cfi_offset 4, -12
 478              		.cfi_offset 5, -8
 479              		.cfi_offset 14, -4
 480 0002 87B0     		sub	sp, sp, #28
 481              		.cfi_def_cfa_offset 40
 182:clock_type.c  ****     
 482              		.loc 1 182 0
 483 0004 2F48     		ldr	r0, .L49
 484 0006 FFF7FEFF 		bl	UART_LOG_PutString
 485              	.LVL42:
 486              	.LBB42:
 487              	.LBB43:
 265:.\Source\rte/sc_clock.h **** }                                                                                                  
 488              		.loc 2 265 0
 489 000a 2F4A     		ldr	r2, .L49+4
 490 000c 03AB     		add	r3, sp, #12
 491 000e 07CA     		ldmia	r2, {r0, r1, r2}
 492 0010 03C3     		stmia	r3!, {r0, r1}
 493 0012 1A70     		strb	r2, [r3]
 494              	.LVL43:
 495              	.LBE43:
 496              	.LBE42:
 186:clock_type.c  ****     {
 497              		.loc 1 186 0
 498 0014 9DF80C30 		ldrb	r3, [sp, #12]	@ zero_extendqisi2
 499 0018 022B     		cmp	r3, #2
 500 001a 0DD1     		bne	.L38
 188:clock_type.c  ****         {
 501              		.loc 1 188 0
 502 001c 9DF81220 		ldrb	r2, [sp, #18]	@ zero_extendqisi2
 503 0020 9DF81130 		ldrb	r3, [sp, #17]	@ zero_extendqisi2
 504 0024 9A42     		cmp	r2, r3
 505 0026 03D9     		bls	.L39
 190:clock_type.c  ****         }
 506              		.loc 1 190 0
 507 0028 0133     		adds	r3, r3, #1
 508 002a 8DF81130 		strb	r3, [sp, #17]
 509 002e 12E0     		b	.L40
 510              	.L39:
 194:clock_type.c  ****         }
 511              		.loc 1 194 0
 512 0030 0023     		movs	r3, #0
 513 0032 8DF81130 		strb	r3, [sp, #17]
 514 0036 0EE0     		b	.L40
 515              	.L38:
 197:clock_type.c  ****     {
 516              		.loc 1 197 0
 517 0038 012B     		cmp	r3, #1
 518 003a 0CD1     		bne	.L40
 199:clock_type.c  ****         {
 519              		.loc 1 199 0
 520 003c 9DF80E20 		ldrb	r2, [sp, #14]	@ zero_extendqisi2
 521 0040 9DF80D30 		ldrb	r3, [sp, #13]	@ zero_extendqisi2
 522 0044 9A42     		cmp	r2, r3
 523 0046 03D9     		bls	.L41
 201:clock_type.c  ****         }
ARM GAS  C:\Users\mau_g\AppData\Local\Temp\ccUsGJqR.s 			page 21


 524              		.loc 1 201 0
 525 0048 0133     		adds	r3, r3, #1
 526 004a 8DF80D30 		strb	r3, [sp, #13]
 527 004e 02E0     		b	.L40
 528              	.L41:
 205:clock_type.c  ****         }
 529              		.loc 1 205 0
 530 0050 0023     		movs	r3, #0
 531 0052 8DF80D30 		strb	r3, [sp, #13]
 532              	.L40:
 533              	.LVL44:
 534 0056 6B46     		mov	r3, sp
 535 0058 06AA     		add	r2, sp, #24
 536 005a 12E90700 		ldmdb	r2, {r0, r1, r2}
 537 005e 03C3     		stmia	r3!, {r0, r1}
 538 0060 1A70     		strb	r2, [r3]
 539              	.LVL45:
 540              	.LBB44:
 541              	.LBB45:
 304:.\Source\rte/sc_clock.h ****    signal->value  = value;
 542              		.loc 2 304 0
 543 0062 194B     		ldr	r3, .L49+4
 544 0064 1B69     		ldr	r3, [r3, #16]
 545 0066 93F82020 		ldrb	r2, [r3, #32]	@ zero_extendqisi2
 546 006a 012A     		cmp	r2, #1
 547 006c 02D1     		bne	.L42
 548 006e 586A     		ldr	r0, [r3, #36]
 549 0070 FFF7FEFF 		bl	EE_oo_GetResource
 550              	.LVL46:
 551              	.L42:
 305:.\Source\rte/sc_clock.h ****    signal->age    = 0;
 552              		.loc 2 305 0
 553 0074 144C     		ldr	r4, .L49+4
 554 0076 2346     		mov	r3, r4
 555 0078 9DE80700 		ldmia	sp, {r0, r1, r2}
 556 007c 03C3     		stmia	r3!, {r0, r1}
 557 007e 1A70     		strb	r2, [r3]
 306:.\Source\rte/sc_clock.h ****    signal->status = RTE_SIGNALSTATUS_VALID;
 558              		.loc 2 306 0
 559 0080 0023     		movs	r3, #0
 560 0082 E360     		str	r3, [r4, #12]
 307:.\Source\rte/sc_clock.h ****    if (TRUE == signal->pSigCfg->resourceActive) ReleaseResource(signal->pSigCfg->resource);
 561              		.loc 2 307 0
 562 0084 0223     		movs	r3, #2
 563 0086 6372     		strb	r3, [r4, #9]
 308:.\Source\rte/sc_clock.h **** 
 564              		.loc 2 308 0
 565 0088 2369     		ldr	r3, [r4, #16]
 566 008a 93F82020 		ldrb	r2, [r3, #32]	@ zero_extendqisi2
 567 008e 012A     		cmp	r2, #1
 568 0090 02D1     		bne	.L43
 569 0092 586A     		ldr	r0, [r3, #36]
 570 0094 FFF7FEFF 		bl	EE_oo_ReleaseResource
 571              	.LVL47:
 572              	.L43:
 311:.\Source\rte/sc_clock.h **** 
 573              		.loc 2 311 0
ARM GAS  C:\Users\mau_g\AppData\Local\Temp\ccUsGJqR.s 			page 22


 574 0098 0B4B     		ldr	r3, .L49+4
 575 009a 1B69     		ldr	r3, [r3, #16]
 576 009c 5D69     		ldr	r5, [r3, #20]
 577              	.LVL48:
 313:.\Source\rte/sc_clock.h ****       for( taskNum=0 ; taskNum < signal->pSigCfg->onUpdateTaskCount ;taskNum++){
 578              		.loc 2 313 0
 579 009e 9B68     		ldr	r3, [r3, #8]
 580 00a0 73B1     		cbz	r3, .L37
 581 00a2 3DB9     		cbnz	r5, .L47
 582 00a4 0CE0     		b	.L37
 583              	.LVL49:
 584              	.L46:
 585              	.LBB46:
 586              		.loc 2 317 0
 587 00a6 9968     		ldr	r1, [r3, #8]
 588 00a8 55F82400 		ldr	r0, [r5, r4, lsl #2]
 589 00ac FFF7FEFF 		bl	EE_oo_SetEvent
 590              	.LVL50:
 591              	.LBE46:
 314:.\Source\rte/sc_clock.h **** 		  
 592              		.loc 2 314 0
 593 00b0 0134     		adds	r4, r4, #1
 594              	.LVL51:
 595 00b2 00E0     		b	.L45
 596              	.LVL52:
 597              	.L47:
 313:.\Source\rte/sc_clock.h ****       for( taskNum=0 ; taskNum < signal->pSigCfg->onUpdateTaskCount ;taskNum++){
 598              		.loc 2 313 0
 599 00b4 0024     		movs	r4, #0
 600              	.LVL53:
 601              	.L45:
 314:.\Source\rte/sc_clock.h **** 		  
 602              		.loc 2 314 0
 603 00b6 044B     		ldr	r3, .L49+4
 604 00b8 1B69     		ldr	r3, [r3, #16]
 605 00ba 1A69     		ldr	r2, [r3, #16]
 606 00bc 9442     		cmp	r4, r2
 607 00be F2D3     		bcc	.L46
 608              	.LVL54:
 609              	.L37:
 610              	.LBE45:
 611              	.LBE44:
 214:clock_type.c  **** 
 612              		.loc 1 214 0
 613 00c0 07B0     		add	sp, sp, #28
 614              		.cfi_def_cfa_offset 12
 615              		@ sp needed
 616 00c2 30BD     		pop	{r4, r5, pc}
 617              	.LVL55:
 618              	.L50:
 619              		.align	2
 620              	.L49:
 621 00c4 38000000 		.word	.LC3
 622 00c8 00000000 		.word	SO_CLOCK_signal
 623              		.cfi_endproc
 624              	.LFE153:
 625              		.size	CLOCK_incrementWidget, .-CLOCK_incrementWidget
ARM GAS  C:\Users\mau_g\AppData\Local\Temp\ccUsGJqR.s 			page 23


 626              		.section	.text.CLOCK_dispatch_wrapper,"ax",%progbits
 627              		.align	2
 628              		.thumb
 629              		.thumb_func
 630              		.type	CLOCK_dispatch_wrapper, %function
 631              	CLOCK_dispatch_wrapper:
 632              	.LFB155:
 252:clock_type.c  **** 
 253:clock_type.c  **** /*////////////////////////////////////////////////////////
 254:clock_type.c  ****                      TABLES
 255:clock_type.c  **** */////////////////////////////////////////////////////////
 256:clock_type.c  **** 
 257:clock_type.c  **** ///////////////////////CONTAINER///////////////////////
 258:clock_type.c  **** 
 259:clock_type.c  **** //STATE_CLOCK_C_ISDISPLAYING_Transitions
 260:clock_type.c  **** const STATE_stateInnerTransition_t STATE_CLOCK_C_ISDISPLAYING_Transitions[] = {
 261:clock_type.c  **** /*           Event                        ToState             Guard       Action */
 262:clock_type.c  **** 	{ EVENT(EV_KEYLEFT), 		STATE(CLOCK_C_ISEDITINGHOURS),	0,  	CLOCK_dispatch_KL_Hours },
 263:clock_type.c  **** 	{ EVENT(EV_1MIN), 		    STATE(CLOCK_C_ISDISPLAYING), 	0, 	    CLOCK_increment1Minute  }, 
 264:clock_type.c  **** };
 265:clock_type.c  ****     
 266:clock_type.c  **** //STATE_CLOCK_C_ISEDITINGHOURS_Transitions
 267:clock_type.c  **** const STATE_stateInnerTransitionTable_t STATE_CLOCK_C_ISEDITINGHOURS_Transitions = {
 268:clock_type.c  **** /*          Event                            ToState                  Guard       Action */
 269:clock_type.c  **** 	{ EVENT(EV_KEYLEFT), 		    STATE(CLOCK_C_ISEDITINGMINUTES),    0,  	CLOCK_dispatch_KL_HoursMin },
 270:clock_type.c  **** 	{ EVENT(EV_KEYRIGHT), 		    STATE(CLOCK_C_ISEDITINGHOURS), 	    0, 	    CLOCK_dispatch_KR_Hours   
 271:clock_type.c  ****     { EVENT(EV_KEYRIGHTLONGPRESS),  STATE(CLOCK_C_ISEDITINGHOURS),  	0, 	    CLOCK_dispatch_KRLP_Ho
 272:clock_type.c  ****     { EVENT(EV_250MS), 		        STATE(CLOCK_C_ISEDITINGHOURS),  	0, 	    CLOCK_dispatch_250MS_Hour
 273:clock_type.c  **** };
 274:clock_type.c  **** 
 275:clock_type.c  **** //STATE_CLOCK_C_ISEDITINGMINUTES_Transitions
 276:clock_type.c  **** const STATE_stateInnerTransitionTable_t STATE_CLOCK_C_ISEDITINGMINUTES_Transitions = {
 277:clock_type.c  **** /*         Event                                 ToState             Guard           Action */
 278:clock_type.c  **** 	{ EVENT(EV_KEYLEFT), 		    STATE(CLOCK_C_ISDISPLAYING),        0,  	CLOCK_dispatch_KL_Min    },
 279:clock_type.c  **** 	{ EVENT(EV_KEYRIGHT), 		    STATE(CLOCK_C_ISEDITINGMINUTES), 	0, 	    CLOCK_dispatch_KR_Min    }, 
 280:clock_type.c  ****     { EVENT(EV_KEYRIGHTLONGPRESS),  STATE(CLOCK_C_ISEDITINGMINUTES),  	0, 	    CLOCK_dispatch_KRLP_
 281:clock_type.c  ****     { EVENT(EV_250MS), 		        STATE(CLOCK_C_ISEDITINGMINUTES),  	0, 	    CLOCK_dispatch_250MS_Mi
 282:clock_type.c  **** };
 283:clock_type.c  **** 
 284:clock_type.c  **** const STATE_stateOuterTransitionTable_t CLOCK_Container_Transitions = {
 285:clock_type.c  **** /*         fromState                PointerToTable                        Size of table [Elements] 
 286:clock_type.c  **** 	{ STATE(CLOCK_C_ISDISPLAYING),      &STATE_CLOCK_C_ISDISPLAYING_Transitions,      sizeof(STATE_CLO
 287:clock_type.c  **** 	{ STATE(CLOCK_C_ISEDITINGHOURS),    &STATE_CLOCK_C_ISEDITINGHOURS_Transitions,    sizeof(STATE_CLO
 288:clock_type.c  ****     { STATE(CLOCK_C_ISEDITINGMINUTES),  &STATE_CLOCK_C_ISEDITINGMINUTES_Transitions,  sizeof(STATE_
 289:clock_type.c  **** };
 290:clock_type.c  **** 
 291:clock_type.c  **** //Action Table
 292:clock_type.c  **** static const STATE_stateAction_t CLOCK_StateActions[] = {
 293:clock_type.c  ****     /*  fromState                               Entry           Exit*/
 294:clock_type.c  ****     { STATE(CLOCK_C_ISDISPLAYING),              0,              0   }
 295:clock_type.c  **** };
 296:clock_type.c  **** 
 297:clock_type.c  **** 
 298:clock_type.c  **** //const uint16_t CLOCK_Container_Transitions_Size = sizeof(CLOCK_Container_Transitions)/sizeof(STAT
 299:clock_type.c  ****     
 300:clock_type.c  **** 
 301:clock_type.c  **** ///////////////////////WIDGET///////////////////////
ARM GAS  C:\Users\mau_g\AppData\Local\Temp\ccUsGJqR.s 			page 24


 302:clock_type.c  **** 
 303:clock_type.c  **** //STATE_CLOCK_W_ISDISPLAYING_Transitions
 304:clock_type.c  **** const STATE_stateInnerTransitionTable_t STATE_CLOCK_W_ISDISPLAYING_Transitions = {
 305:clock_type.c  **** /*           Event                 ToState                Guard       Action */
 306:clock_type.c  **** 	{ EVENT(EV_KEYLEFT),    STATE(CLOCK_W_ISEDITING),   	0,  	CLOCK_setEditFonts},
 307:clock_type.c  ****    	{ EVENT(EV_1MIN),       STATE(CLOCK_W_ISDISPLAYING),	0,  	CLOCK_updateTime},
 308:clock_type.c  **** };
 309:clock_type.c  **** 
 310:clock_type.c  **** //STATE_CLOCK_W_ISEDITING_Transitions
 311:clock_type.c  **** const STATE_stateInnerTransitionTable_t STATE_CLOCK_W_ISEDITING_Transitions = {
 312:clock_type.c  **** /*           Event                      ToState                  Guard       Action */
 313:clock_type.c  **** 	{ EVENT(EV_KEYRIGHT),           STATE(CLOCK_W_ISEDITING),   	0,  	CLOCK_incrementWidget},
 314:clock_type.c  ****     { EVENT(EV_KEYRIGHTLONGPRESS),  STATE(CLOCK_W_ISAUTOINCREMENT),	0,  	0                    },
 315:clock_type.c  ****     { EVENT(EV_KEYLEFT),            STATE(CLOCK_W_ISDISPLAYING),	0,  	CLOCK_setDisplayFonts},
 316:clock_type.c  **** };
 317:clock_type.c  **** 
 318:clock_type.c  **** //STATE_CLOCK_W_ISAUTOINCREMENT_Transitions
 319:clock_type.c  **** const STATE_stateInnerTransitionTable_t STATE_CLOCK_W_ISAUTOINCREMENT_Transitions = {
 320:clock_type.c  **** /*           Event                ToState                    Guard       Action */
 321:clock_type.c  **** 	{ EVENT(EV_KEYRIGHT),   STATE(CLOCK_W_ISEDITING),       	0,  	CLOCK_incrementWidget},
 322:clock_type.c  ****     { EVENT(EV_250MS),      STATE(CLOCK_W_ISAUTOINCREMENT), 	0,  	CLOCK_incrementWidget},
 323:clock_type.c  ****     { EVENT(EV_KEYLEFT),     STATE(CLOCK_W_ISDISPLAYING),   	0,  	CLOCK_setDisplayFonts},
 324:clock_type.c  **** };
 325:clock_type.c  **** 
 326:clock_type.c  **** //CLOCK_Widget_Transitions
 327:clock_type.c  **** const STATE_stateOuterTransitionTable_t CLOCK_Widget_Transitions = {
 328:clock_type.c  **** /*         fromState                          PointerToTable                          Size of table
 329:clock_type.c  **** 	{ STATE(CLOCK_W_ISDISPLAYING),     &STATE_CLOCK_W_ISDISPLAYING_Transitions,      sizeof(STATE_CLOC
 330:clock_type.c  **** 	{ STATE(CLOCK_W_ISEDITING),        &STATE_CLOCK_W_ISEDITING_Transitions,         sizeof(STATE_CLOC
 331:clock_type.c  ****     { STATE(CLOCK_W_ISAUTOINCREMENT),  &STATE_CLOCK_W_ISAUTOINCREMENT_Transitions,   sizeof(STATE_C
 332:clock_type.c  **** };
 333:clock_type.c  **** 
 334:clock_type.c  **** /*////////////////////////////////////////////////////////
 335:clock_type.c  ****                      STATE MACHINE OBJECTS
 336:clock_type.c  **** */////////////////////////////////////////////////////////
 337:clock_type.c  **** 
 338:clock_type.c  **** //Hour Widget
 339:clock_type.c  **** STATE_t CLOCK_hourWidget = {
 340:clock_type.c  ****                                 &CLOCK_Widget_Transitions,
 341:clock_type.c  ****                                 sizeof(CLOCK_Widget_Transitions)/sizeof(STATE_stateOuterTransition_
 342:clock_type.c  ****                                 &CLOCK_StateActions,
 343:clock_type.c  ****                                 sizeof(CLOCK_StateActions)/sizeof(STATE_stateAction_t),
 344:clock_type.c  ****                                 STATE(CLOCK_W_ISDISPLAYING)
 345:clock_type.c  **** };
 346:clock_type.c  **** 
 347:clock_type.c  **** //Minute Widget
 348:clock_type.c  **** STATE_t CLOCK_minuteWidget = {
 349:clock_type.c  ****                                 &CLOCK_Widget_Transitions,
 350:clock_type.c  ****                                 sizeof(CLOCK_Widget_Transitions)/sizeof(STATE_stateOuterTransition_
 351:clock_type.c  ****                                 &CLOCK_StateActions,
 352:clock_type.c  ****                                 sizeof(CLOCK_StateActions)/sizeof(STATE_stateAction_t),
 353:clock_type.c  ****                                 STATE(CLOCK_W_ISDISPLAYING)
 354:clock_type.c  **** };
 355:clock_type.c  **** 
 356:clock_type.c  **** //Object of the State Machine
 357:clock_type.c  **** STATE_t CLOCK_fsm = {
 358:clock_type.c  ****                         &CLOCK_Container_Transitions,
ARM GAS  C:\Users\mau_g\AppData\Local\Temp\ccUsGJqR.s 			page 25


 359:clock_type.c  ****                         sizeof(CLOCK_Container_Transitions)/sizeof(STATE_stateOuterTransition_t),
 360:clock_type.c  ****                         &CLOCK_StateActions,
 361:clock_type.c  ****                         sizeof(CLOCK_StateActions)/sizeof(STATE_stateAction_t),
 362:clock_type.c  ****                         STATE(CLOCK_C_ISDISPLAYING)
 363:clock_type.c  **** };
 364:clock_type.c  **** 
 365:clock_type.c  **** 
 366:clock_type.c  **** /*////////////////////////////////////////////////////////
 367:clock_type.c  ****                      DISPATCH WRAPPER
 368:clock_type.c  **** */////////////////////////////////////////////////////////
 369:clock_type.c  **** static void CLOCK_dispatch_wrapper(EVENT_enum_t ev, CLOCK_active_widget_t widget)
 370:clock_type.c  **** {
 633              		.loc 1 370 0
 634              		.cfi_startproc
 635              		@ args = 0, pretend = 0, frame = 24
 636              		@ frame_needed = 0, uses_anonymous_args = 0
 637              	.LVL56:
 638 0000 F0B5     		push	{r4, r5, r6, r7, lr}
 639              		.cfi_def_cfa_offset 20
 640              		.cfi_offset 4, -20
 641              		.cfi_offset 5, -16
 642              		.cfi_offset 6, -12
 643              		.cfi_offset 7, -8
 644              		.cfi_offset 14, -4
 645 0002 87B0     		sub	sp, sp, #28
 646              		.cfi_def_cfa_offset 48
 647 0004 0746     		mov	r7, r0
 648 0006 0E46     		mov	r6, r1
 649              	.LVL57:
 650              	.LBB47:
 651              	.LBB48:
 265:.\Source\rte/sc_clock.h **** }                                                                                                  
 652              		.loc 2 265 0
 653 0008 254C     		ldr	r4, .L61
 654 000a 03AB     		add	r3, sp, #12
 655 000c 94E80700 		ldmia	r4, {r0, r1, r2}
 656              	.LVL58:
 657 0010 03C3     		stmia	r3!, {r0, r1}
 658 0012 1A70     		strb	r2, [r3]
 659              	.LVL59:
 660              	.LBE48:
 661              	.LBE47:
 371:clock_type.c  ****     SC_CLOCK_data_t clock = RTE_SC_CLOCK_get(&SO_CLOCK_signal);
 372:clock_type.c  ****     
 373:clock_type.c  ****     clock.m_activeWidget = widget;
 662              		.loc 1 373 0
 663 0014 8DF80C60 		strb	r6, [sp, #12]
 664              	.LVL60:
 665 0018 6B46     		mov	r3, sp
 666 001a 06AA     		add	r2, sp, #24
 667 001c 12E90700 		ldmdb	r2, {r0, r1, r2}
 668 0020 03C3     		stmia	r3!, {r0, r1}
 669 0022 1A70     		strb	r2, [r3]
 670              	.LVL61:
 671              	.LBB49:
 672              	.LBB50:
 304:.\Source\rte/sc_clock.h ****    signal->value  = value;
ARM GAS  C:\Users\mau_g\AppData\Local\Temp\ccUsGJqR.s 			page 26


 673              		.loc 2 304 0
 674 0024 2369     		ldr	r3, [r4, #16]
 675 0026 93F82020 		ldrb	r2, [r3, #32]	@ zero_extendqisi2
 676 002a 012A     		cmp	r2, #1
 677 002c 02D1     		bne	.L52
 678 002e 586A     		ldr	r0, [r3, #36]
 679 0030 FFF7FEFF 		bl	EE_oo_GetResource
 680              	.LVL62:
 681              	.L52:
 305:.\Source\rte/sc_clock.h ****    signal->age    = 0;
 682              		.loc 2 305 0
 683 0034 1A4C     		ldr	r4, .L61
 684 0036 2346     		mov	r3, r4
 685 0038 9DE80700 		ldmia	sp, {r0, r1, r2}
 686 003c 03C3     		stmia	r3!, {r0, r1}
 687 003e 1A70     		strb	r2, [r3]
 306:.\Source\rte/sc_clock.h ****    signal->status = RTE_SIGNALSTATUS_VALID;
 688              		.loc 2 306 0
 689 0040 0023     		movs	r3, #0
 690 0042 E360     		str	r3, [r4, #12]
 307:.\Source\rte/sc_clock.h ****    if (TRUE == signal->pSigCfg->resourceActive) ReleaseResource(signal->pSigCfg->resource);
 691              		.loc 2 307 0
 692 0044 0223     		movs	r3, #2
 693 0046 6372     		strb	r3, [r4, #9]
 308:.\Source\rte/sc_clock.h **** 
 694              		.loc 2 308 0
 695 0048 2369     		ldr	r3, [r4, #16]
 696 004a 93F82020 		ldrb	r2, [r3, #32]	@ zero_extendqisi2
 697 004e 012A     		cmp	r2, #1
 698 0050 02D1     		bne	.L53
 699 0052 586A     		ldr	r0, [r3, #36]
 700 0054 FFF7FEFF 		bl	EE_oo_ReleaseResource
 701              	.LVL63:
 702              	.L53:
 311:.\Source\rte/sc_clock.h **** 
 703              		.loc 2 311 0
 704 0058 114B     		ldr	r3, .L61
 705 005a 1B69     		ldr	r3, [r3, #16]
 706 005c 5D69     		ldr	r5, [r3, #20]
 707              	.LVL64:
 313:.\Source\rte/sc_clock.h ****       for( taskNum=0 ; taskNum < signal->pSigCfg->onUpdateTaskCount ;taskNum++){
 708              		.loc 2 313 0
 709 005e 9B68     		ldr	r3, [r3, #8]
 710 0060 73B1     		cbz	r3, .L54
 711 0062 3DB9     		cbnz	r5, .L59
 712 0064 0CE0     		b	.L54
 713              	.LVL65:
 714              	.L56:
 715              	.LBB51:
 716              		.loc 2 317 0
 717 0066 9968     		ldr	r1, [r3, #8]
 718 0068 55F82400 		ldr	r0, [r5, r4, lsl #2]
 719 006c FFF7FEFF 		bl	EE_oo_SetEvent
 720              	.LVL66:
 721              	.LBE51:
 314:.\Source\rte/sc_clock.h **** 		  
 722              		.loc 2 314 0
ARM GAS  C:\Users\mau_g\AppData\Local\Temp\ccUsGJqR.s 			page 27


 723 0070 0134     		adds	r4, r4, #1
 724              	.LVL67:
 725 0072 00E0     		b	.L55
 726              	.LVL68:
 727              	.L59:
 313:.\Source\rte/sc_clock.h ****       for( taskNum=0 ; taskNum < signal->pSigCfg->onUpdateTaskCount ;taskNum++){
 728              		.loc 2 313 0
 729 0074 0024     		movs	r4, #0
 730              	.LVL69:
 731              	.L55:
 314:.\Source\rte/sc_clock.h **** 		  
 732              		.loc 2 314 0
 733 0076 0A4B     		ldr	r3, .L61
 734 0078 1B69     		ldr	r3, [r3, #16]
 735 007a 1A69     		ldr	r2, [r3, #16]
 736 007c 9442     		cmp	r4, r2
 737 007e F2D3     		bcc	.L56
 738              	.LVL70:
 739              	.L54:
 740              	.LBE50:
 741              	.LBE49:
 374:clock_type.c  ****     
 375:clock_type.c  ****     RTE_SC_CLOCK_set(&SO_CLOCK_signal, clock);
 376:clock_type.c  ****     
 377:clock_type.c  ****     if(CLOCK_hour_widget == widget)
 742              		.loc 1 377 0
 743 0080 012E     		cmp	r6, #1
 744 0082 04D1     		bne	.L57
 378:clock_type.c  ****     {
 379:clock_type.c  ****         //CLOCK_state_t localState = clock.m_hours.m_state;
 380:clock_type.c  ****         STATE_processEvent(&CLOCK_hourWidget, ev);
 745              		.loc 1 380 0
 746 0084 3946     		mov	r1, r7
 747 0086 0748     		ldr	r0, .L61+4
 748 0088 FFF7FEFF 		bl	STATE_processEvent
 749              	.LVL71:
 750 008c 05E0     		b	.L51
 751              	.L57:
 381:clock_type.c  ****     }
 382:clock_type.c  ****     else if(CLOCK_minute_widget == widget)
 752              		.loc 1 382 0
 753 008e 022E     		cmp	r6, #2
 754 0090 03D1     		bne	.L51
 383:clock_type.c  ****     {
 384:clock_type.c  ****         STATE_processEvent(&CLOCK_minuteWidget, ev);   
 755              		.loc 1 384 0
 756 0092 3946     		mov	r1, r7
 757 0094 0448     		ldr	r0, .L61+8
 758 0096 FFF7FEFF 		bl	STATE_processEvent
 759              	.LVL72:
 760              	.L51:
 385:clock_type.c  ****     }
 386:clock_type.c  ****     else
 387:clock_type.c  ****     {
 388:clock_type.c  ****         //Intended to do nothing.   
 389:clock_type.c  ****     }
 390:clock_type.c  ****     
ARM GAS  C:\Users\mau_g\AppData\Local\Temp\ccUsGJqR.s 			page 28


 391:clock_type.c  **** }
 761              		.loc 1 391 0
 762 009a 07B0     		add	sp, sp, #28
 763              		.cfi_def_cfa_offset 20
 764              		@ sp needed
 765 009c F0BD     		pop	{r4, r5, r6, r7, pc}
 766              	.L62:
 767 009e 00BF     		.align	2
 768              	.L61:
 769 00a0 00000000 		.word	SO_CLOCK_signal
 770 00a4 00000000 		.word	.LANCHOR0
 771 00a8 10000000 		.word	.LANCHOR0+16
 772              		.cfi_endproc
 773              	.LFE155:
 774              		.size	CLOCK_dispatch_wrapper, .-CLOCK_dispatch_wrapper
 775              		.section	.text.CLOCK_increment1Minute,"ax",%progbits
 776              		.align	2
 777              		.thumb
 778              		.thumb_func
 779              		.type	CLOCK_increment1Minute, %function
 780              	CLOCK_increment1Minute:
 781              	.LFB142:
  58:clock_type.c  ****     UART_LOG_PutString("Increment 1 Minute \n");
 782              		.loc 1 58 0
 783              		.cfi_startproc
 784              		@ args = 0, pretend = 0, frame = 0
 785              		@ frame_needed = 0, uses_anonymous_args = 0
 786 0000 08B5     		push	{r3, lr}
 787              		.cfi_def_cfa_offset 8
 788              		.cfi_offset 3, -8
 789              		.cfi_offset 14, -4
  59:clock_type.c  ****     
 790              		.loc 1 59 0
 791 0002 0648     		ldr	r0, .L65
 792 0004 FFF7FEFF 		bl	UART_LOG_PutString
 793              	.LVL73:
  61:clock_type.c  ****     
 794              		.loc 1 61 0
 795 0008 0121     		movs	r1, #1
 796 000a 0520     		movs	r0, #5
 797 000c FFF7FEFF 		bl	CLOCK_dispatch_wrapper
 798              	.LVL74:
  63:clock_type.c  **** }
 799              		.loc 1 63 0
 800 0010 0221     		movs	r1, #2
 801 0012 0520     		movs	r0, #5
 802 0014 FFF7FEFF 		bl	CLOCK_dispatch_wrapper
 803              	.LVL75:
 804 0018 08BD     		pop	{r3, pc}
 805              	.L66:
 806 001a 00BF     		.align	2
 807              	.L65:
 808 001c 4C000000 		.word	.LC4
 809              		.cfi_endproc
 810              	.LFE142:
 811              		.size	CLOCK_increment1Minute, .-CLOCK_increment1Minute
 812              		.section	.text.CLOCK_dispatch_KL_Hours,"ax",%progbits
ARM GAS  C:\Users\mau_g\AppData\Local\Temp\ccUsGJqR.s 			page 29


 813              		.align	2
 814              		.thumb
 815              		.thumb_func
 816              		.type	CLOCK_dispatch_KL_Hours, %function
 817              	CLOCK_dispatch_KL_Hours:
 818              	.LFB141:
  50:clock_type.c  ****     UART_LOG_PutString("Dispatch KL Hours \n");
 819              		.loc 1 50 0
 820              		.cfi_startproc
 821              		@ args = 0, pretend = 0, frame = 0
 822              		@ frame_needed = 0, uses_anonymous_args = 0
 823 0000 08B5     		push	{r3, lr}
 824              		.cfi_def_cfa_offset 8
 825              		.cfi_offset 3, -8
 826              		.cfi_offset 14, -4
  51:clock_type.c  ****     
 827              		.loc 1 51 0
 828 0002 0448     		ldr	r0, .L69
 829 0004 FFF7FEFF 		bl	UART_LOG_PutString
 830              	.LVL76:
  53:clock_type.c  **** }
 831              		.loc 1 53 0
 832 0008 0121     		movs	r1, #1
 833 000a 0846     		mov	r0, r1
 834 000c FFF7FEFF 		bl	CLOCK_dispatch_wrapper
 835              	.LVL77:
 836 0010 08BD     		pop	{r3, pc}
 837              	.L70:
 838 0012 00BF     		.align	2
 839              	.L69:
 840 0014 64000000 		.word	.LC5
 841              		.cfi_endproc
 842              	.LFE141:
 843              		.size	CLOCK_dispatch_KL_Hours, .-CLOCK_dispatch_KL_Hours
 844              		.section	.text.CLOCK_dispatch_250MS_Hours,"ax",%progbits
 845              		.align	2
 846              		.thumb
 847              		.thumb_func
 848              		.type	CLOCK_dispatch_250MS_Hours, %function
 849              	CLOCK_dispatch_250MS_Hours:
 850              	.LFB146:
  94:clock_type.c  ****     UART_LOG_PutString("Dispatch 250MS Hours \n");
 851              		.loc 1 94 0
 852              		.cfi_startproc
 853              		@ args = 0, pretend = 0, frame = 0
 854              		@ frame_needed = 0, uses_anonymous_args = 0
 855 0000 08B5     		push	{r3, lr}
 856              		.cfi_def_cfa_offset 8
 857              		.cfi_offset 3, -8
 858              		.cfi_offset 14, -4
  95:clock_type.c  ****     
 859              		.loc 1 95 0
 860 0002 0448     		ldr	r0, .L73
 861 0004 FFF7FEFF 		bl	UART_LOG_PutString
 862              	.LVL78:
  97:clock_type.c  **** }
 863              		.loc 1 97 0
ARM GAS  C:\Users\mau_g\AppData\Local\Temp\ccUsGJqR.s 			page 30


 864 0008 0121     		movs	r1, #1
 865 000a 0420     		movs	r0, #4
 866 000c FFF7FEFF 		bl	CLOCK_dispatch_wrapper
 867              	.LVL79:
 868 0010 08BD     		pop	{r3, pc}
 869              	.L74:
 870 0012 00BF     		.align	2
 871              	.L73:
 872 0014 78000000 		.word	.LC6
 873              		.cfi_endproc
 874              	.LFE146:
 875              		.size	CLOCK_dispatch_250MS_Hours, .-CLOCK_dispatch_250MS_Hours
 876              		.section	.text.CLOCK_dispatch_KRLP_Hours,"ax",%progbits
 877              		.align	2
 878              		.thumb
 879              		.thumb_func
 880              		.type	CLOCK_dispatch_KRLP_Hours, %function
 881              	CLOCK_dispatch_KRLP_Hours:
 882              	.LFB145:
  86:clock_type.c  ****     UART_LOG_PutString("Dispatch KRLP Hours \n");
 883              		.loc 1 86 0
 884              		.cfi_startproc
 885              		@ args = 0, pretend = 0, frame = 0
 886              		@ frame_needed = 0, uses_anonymous_args = 0
 887 0000 08B5     		push	{r3, lr}
 888              		.cfi_def_cfa_offset 8
 889              		.cfi_offset 3, -8
 890              		.cfi_offset 14, -4
  87:clock_type.c  ****     
 891              		.loc 1 87 0
 892 0002 0448     		ldr	r0, .L77
 893 0004 FFF7FEFF 		bl	UART_LOG_PutString
 894              	.LVL80:
  89:clock_type.c  **** }
 895              		.loc 1 89 0
 896 0008 0121     		movs	r1, #1
 897 000a 0320     		movs	r0, #3
 898 000c FFF7FEFF 		bl	CLOCK_dispatch_wrapper
 899              	.LVL81:
 900 0010 08BD     		pop	{r3, pc}
 901              	.L78:
 902 0012 00BF     		.align	2
 903              	.L77:
 904 0014 90000000 		.word	.LC7
 905              		.cfi_endproc
 906              	.LFE145:
 907              		.size	CLOCK_dispatch_KRLP_Hours, .-CLOCK_dispatch_KRLP_Hours
 908              		.section	.text.CLOCK_dispatch_KR_Hours,"ax",%progbits
 909              		.align	2
 910              		.thumb
 911              		.thumb_func
 912              		.type	CLOCK_dispatch_KR_Hours, %function
 913              	CLOCK_dispatch_KR_Hours:
 914              	.LFB144:
  78:clock_type.c  ****     UART_LOG_PutString("Dispatch KR Hours \n");
 915              		.loc 1 78 0
 916              		.cfi_startproc
ARM GAS  C:\Users\mau_g\AppData\Local\Temp\ccUsGJqR.s 			page 31


 917              		@ args = 0, pretend = 0, frame = 0
 918              		@ frame_needed = 0, uses_anonymous_args = 0
 919 0000 08B5     		push	{r3, lr}
 920              		.cfi_def_cfa_offset 8
 921              		.cfi_offset 3, -8
 922              		.cfi_offset 14, -4
  79:clock_type.c  ****     
 923              		.loc 1 79 0
 924 0002 0448     		ldr	r0, .L81
 925 0004 FFF7FEFF 		bl	UART_LOG_PutString
 926              	.LVL82:
  81:clock_type.c  **** }
 927              		.loc 1 81 0
 928 0008 0121     		movs	r1, #1
 929 000a 0220     		movs	r0, #2
 930 000c FFF7FEFF 		bl	CLOCK_dispatch_wrapper
 931              	.LVL83:
 932 0010 08BD     		pop	{r3, pc}
 933              	.L82:
 934 0012 00BF     		.align	2
 935              	.L81:
 936 0014 A8000000 		.word	.LC8
 937              		.cfi_endproc
 938              	.LFE144:
 939              		.size	CLOCK_dispatch_KR_Hours, .-CLOCK_dispatch_KR_Hours
 940              		.section	.text.CLOCK_dispatch_KL_HoursMin,"ax",%progbits
 941              		.align	2
 942              		.thumb
 943              		.thumb_func
 944              		.type	CLOCK_dispatch_KL_HoursMin, %function
 945              	CLOCK_dispatch_KL_HoursMin:
 946              	.LFB143:
  68:clock_type.c  ****     UART_LOG_PutString("Dispatch KL Hours Min \n");
 947              		.loc 1 68 0
 948              		.cfi_startproc
 949              		@ args = 0, pretend = 0, frame = 0
 950              		@ frame_needed = 0, uses_anonymous_args = 0
 951 0000 08B5     		push	{r3, lr}
 952              		.cfi_def_cfa_offset 8
 953              		.cfi_offset 3, -8
 954              		.cfi_offset 14, -4
  69:clock_type.c  ****     
 955              		.loc 1 69 0
 956 0002 0648     		ldr	r0, .L85
 957 0004 FFF7FEFF 		bl	UART_LOG_PutString
 958              	.LVL84:
  71:clock_type.c  ****     
 959              		.loc 1 71 0
 960 0008 0121     		movs	r1, #1
 961 000a 0846     		mov	r0, r1
 962 000c FFF7FEFF 		bl	CLOCK_dispatch_wrapper
 963              	.LVL85:
  73:clock_type.c  **** }
 964              		.loc 1 73 0
 965 0010 0221     		movs	r1, #2
 966 0012 0120     		movs	r0, #1
 967 0014 FFF7FEFF 		bl	CLOCK_dispatch_wrapper
ARM GAS  C:\Users\mau_g\AppData\Local\Temp\ccUsGJqR.s 			page 32


 968              	.LVL86:
 969 0018 08BD     		pop	{r3, pc}
 970              	.L86:
 971 001a 00BF     		.align	2
 972              	.L85:
 973 001c BC000000 		.word	.LC9
 974              		.cfi_endproc
 975              	.LFE143:
 976              		.size	CLOCK_dispatch_KL_HoursMin, .-CLOCK_dispatch_KL_HoursMin
 977              		.section	.text.CLOCK_dispatch_250MS_Min,"ax",%progbits
 978              		.align	2
 979              		.thumb
 980              		.thumb_func
 981              		.type	CLOCK_dispatch_250MS_Min, %function
 982              	CLOCK_dispatch_250MS_Min:
 983              	.LFB150:
 126:clock_type.c  ****     UART_LOG_PutString("Dispatch 250MS Min \n");
 984              		.loc 1 126 0
 985              		.cfi_startproc
 986              		@ args = 0, pretend = 0, frame = 0
 987              		@ frame_needed = 0, uses_anonymous_args = 0
 988 0000 08B5     		push	{r3, lr}
 989              		.cfi_def_cfa_offset 8
 990              		.cfi_offset 3, -8
 991              		.cfi_offset 14, -4
 127:clock_type.c  ****     
 992              		.loc 1 127 0
 993 0002 0448     		ldr	r0, .L89
 994 0004 FFF7FEFF 		bl	UART_LOG_PutString
 995              	.LVL87:
 129:clock_type.c  **** }
 996              		.loc 1 129 0
 997 0008 0221     		movs	r1, #2
 998 000a 0420     		movs	r0, #4
 999 000c FFF7FEFF 		bl	CLOCK_dispatch_wrapper
 1000              	.LVL88:
 1001 0010 08BD     		pop	{r3, pc}
 1002              	.L90:
 1003 0012 00BF     		.align	2
 1004              	.L89:
 1005 0014 D4000000 		.word	.LC10
 1006              		.cfi_endproc
 1007              	.LFE150:
 1008              		.size	CLOCK_dispatch_250MS_Min, .-CLOCK_dispatch_250MS_Min
 1009              		.section	.text.CLOCK_dispatch_KRLP_Min,"ax",%progbits
 1010              		.align	2
 1011              		.thumb
 1012              		.thumb_func
 1013              		.type	CLOCK_dispatch_KRLP_Min, %function
 1014              	CLOCK_dispatch_KRLP_Min:
 1015              	.LFB149:
 118:clock_type.c  ****     UART_LOG_PutString("Dispatch KRLP Min \n");
 1016              		.loc 1 118 0
 1017              		.cfi_startproc
 1018              		@ args = 0, pretend = 0, frame = 0
 1019              		@ frame_needed = 0, uses_anonymous_args = 0
 1020 0000 08B5     		push	{r3, lr}
ARM GAS  C:\Users\mau_g\AppData\Local\Temp\ccUsGJqR.s 			page 33


 1021              		.cfi_def_cfa_offset 8
 1022              		.cfi_offset 3, -8
 1023              		.cfi_offset 14, -4
 119:clock_type.c  ****     
 1024              		.loc 1 119 0
 1025 0002 0448     		ldr	r0, .L93
 1026 0004 FFF7FEFF 		bl	UART_LOG_PutString
 1027              	.LVL89:
 121:clock_type.c  **** }
 1028              		.loc 1 121 0
 1029 0008 0221     		movs	r1, #2
 1030 000a 0320     		movs	r0, #3
 1031 000c FFF7FEFF 		bl	CLOCK_dispatch_wrapper
 1032              	.LVL90:
 1033 0010 08BD     		pop	{r3, pc}
 1034              	.L94:
 1035 0012 00BF     		.align	2
 1036              	.L93:
 1037 0014 EC000000 		.word	.LC11
 1038              		.cfi_endproc
 1039              	.LFE149:
 1040              		.size	CLOCK_dispatch_KRLP_Min, .-CLOCK_dispatch_KRLP_Min
 1041              		.section	.text.CLOCK_dispatch_KR_Min,"ax",%progbits
 1042              		.align	2
 1043              		.thumb
 1044              		.thumb_func
 1045              		.type	CLOCK_dispatch_KR_Min, %function
 1046              	CLOCK_dispatch_KR_Min:
 1047              	.LFB148:
 110:clock_type.c  ****     UART_LOG_PutString("Dispatch KR Min \n");
 1048              		.loc 1 110 0
 1049              		.cfi_startproc
 1050              		@ args = 0, pretend = 0, frame = 0
 1051              		@ frame_needed = 0, uses_anonymous_args = 0
 1052 0000 08B5     		push	{r3, lr}
 1053              		.cfi_def_cfa_offset 8
 1054              		.cfi_offset 3, -8
 1055              		.cfi_offset 14, -4
 111:clock_type.c  ****     
 1056              		.loc 1 111 0
 1057 0002 0448     		ldr	r0, .L97
 1058 0004 FFF7FEFF 		bl	UART_LOG_PutString
 1059              	.LVL91:
 113:clock_type.c  **** }
 1060              		.loc 1 113 0
 1061 0008 0221     		movs	r1, #2
 1062 000a 0846     		mov	r0, r1
 1063 000c FFF7FEFF 		bl	CLOCK_dispatch_wrapper
 1064              	.LVL92:
 1065 0010 08BD     		pop	{r3, pc}
 1066              	.L98:
 1067 0012 00BF     		.align	2
 1068              	.L97:
 1069 0014 00010000 		.word	.LC12
 1070              		.cfi_endproc
 1071              	.LFE148:
 1072              		.size	CLOCK_dispatch_KR_Min, .-CLOCK_dispatch_KR_Min
ARM GAS  C:\Users\mau_g\AppData\Local\Temp\ccUsGJqR.s 			page 34


 1073              		.section	.text.CLOCK_dispatch_KL_Min,"ax",%progbits
 1074              		.align	2
 1075              		.thumb
 1076              		.thumb_func
 1077              		.type	CLOCK_dispatch_KL_Min, %function
 1078              	CLOCK_dispatch_KL_Min:
 1079              	.LFB147:
 102:clock_type.c  ****     UART_LOG_PutString("Dispatch KL Min \n");
 1080              		.loc 1 102 0
 1081              		.cfi_startproc
 1082              		@ args = 0, pretend = 0, frame = 0
 1083              		@ frame_needed = 0, uses_anonymous_args = 0
 1084 0000 08B5     		push	{r3, lr}
 1085              		.cfi_def_cfa_offset 8
 1086              		.cfi_offset 3, -8
 1087              		.cfi_offset 14, -4
 103:clock_type.c  ****     
 1088              		.loc 1 103 0
 1089 0002 0448     		ldr	r0, .L101
 1090 0004 FFF7FEFF 		bl	UART_LOG_PutString
 1091              	.LVL93:
 105:clock_type.c  **** }
 1092              		.loc 1 105 0
 1093 0008 0221     		movs	r1, #2
 1094 000a 0120     		movs	r0, #1
 1095 000c FFF7FEFF 		bl	CLOCK_dispatch_wrapper
 1096              	.LVL94:
 1097 0010 08BD     		pop	{r3, pc}
 1098              	.L102:
 1099 0012 00BF     		.align	2
 1100              	.L101:
 1101 0014 14010000 		.word	.LC13
 1102              		.cfi_endproc
 1103              	.LFE147:
 1104              		.size	CLOCK_dispatch_KL_Min, .-CLOCK_dispatch_KL_Min
 1105              		.global	CLOCK_fsm
 1106              		.global	CLOCK_minuteWidget
 1107              		.global	CLOCK_hourWidget
 1108              		.global	CLOCK_Widget_Transitions
 1109              		.global	STATE_CLOCK_W_ISAUTOINCREMENT_Transitions
 1110              		.global	STATE_CLOCK_W_ISEDITING_Transitions
 1111              		.global	STATE_CLOCK_W_ISDISPLAYING_Transitions
 1112              		.global	CLOCK_Container_Transitions
 1113              		.global	STATE_CLOCK_C_ISEDITINGMINUTES_Transitions
 1114              		.global	STATE_CLOCK_C_ISEDITINGHOURS_Transitions
 1115              		.global	STATE_CLOCK_C_ISDISPLAYING_Transitions
 1116              		.section	.rodata
 1117              		.align	2
 1118              		.type	CLOCK_Widget_Transitions, %object
 1119              		.size	CLOCK_Widget_Transitions, 36
 1120              	CLOCK_Widget_Transitions:
 1121 0000 0500     		.short	5
 1122 0002 0000     		.space	2
 1123 0004 00000000 		.word	STATE_CLOCK_W_ISDISPLAYING_Transitions
 1124 0008 0200     		.short	2
 1125 000a 0000     		.space	2
 1126 000c 0300     		.short	3
ARM GAS  C:\Users\mau_g\AppData\Local\Temp\ccUsGJqR.s 			page 35


 1127 000e 0000     		.space	2
 1128 0010 00000000 		.word	STATE_CLOCK_W_ISEDITING_Transitions
 1129 0014 0300     		.short	3
 1130 0016 0000     		.space	2
 1131 0018 0400     		.short	4
 1132 001a 0000     		.space	2
 1133 001c 00000000 		.word	STATE_CLOCK_W_ISAUTOINCREMENT_Transitions
 1134 0020 0300     		.short	3
 1135 0022 0000     		.space	2
 1136              		.type	STATE_CLOCK_W_ISAUTOINCREMENT_Transitions, %object
 1137              		.size	STATE_CLOCK_W_ISAUTOINCREMENT_Transitions, 36
 1138              	STATE_CLOCK_W_ISAUTOINCREMENT_Transitions:
 1139 0024 0200     		.short	2
 1140 0026 0300     		.short	3
 1141 0028 00000000 		.word	0
 1142 002c 00000000 		.word	CLOCK_incrementWidget
 1143 0030 0400     		.short	4
 1144 0032 0400     		.short	4
 1145 0034 00000000 		.word	0
 1146 0038 00000000 		.word	CLOCK_incrementWidget
 1147 003c 0100     		.short	1
 1148 003e 0500     		.short	5
 1149 0040 00000000 		.word	0
 1150 0044 00000000 		.word	CLOCK_setDisplayFonts
 1151              		.type	STATE_CLOCK_W_ISEDITING_Transitions, %object
 1152              		.size	STATE_CLOCK_W_ISEDITING_Transitions, 36
 1153              	STATE_CLOCK_W_ISEDITING_Transitions:
 1154 0048 0200     		.short	2
 1155 004a 0300     		.short	3
 1156 004c 00000000 		.word	0
 1157 0050 00000000 		.word	CLOCK_incrementWidget
 1158 0054 0300     		.short	3
 1159 0056 0400     		.short	4
 1160 0058 00000000 		.word	0
 1161 005c 00000000 		.word	0
 1162 0060 0100     		.short	1
 1163 0062 0500     		.short	5
 1164 0064 00000000 		.word	0
 1165 0068 00000000 		.word	CLOCK_setDisplayFonts
 1166              		.type	STATE_CLOCK_W_ISDISPLAYING_Transitions, %object
 1167              		.size	STATE_CLOCK_W_ISDISPLAYING_Transitions, 24
 1168              	STATE_CLOCK_W_ISDISPLAYING_Transitions:
 1169 006c 0100     		.short	1
 1170 006e 0300     		.short	3
 1171 0070 00000000 		.word	0
 1172 0074 00000000 		.word	CLOCK_setEditFonts
 1173 0078 0500     		.short	5
 1174 007a 0500     		.short	5
 1175 007c 00000000 		.word	0
 1176 0080 00000000 		.word	CLOCK_updateTime
 1177              		.type	CLOCK_StateActions, %object
 1178              		.size	CLOCK_StateActions, 12
 1179              	CLOCK_StateActions:
 1180 0084 0200     		.short	2
 1181 0086 0000     		.space	2
 1182 0088 00000000 		.word	0
 1183 008c 00000000 		.word	0
ARM GAS  C:\Users\mau_g\AppData\Local\Temp\ccUsGJqR.s 			page 36


 1184              		.type	CLOCK_Container_Transitions, %object
 1185              		.size	CLOCK_Container_Transitions, 36
 1186              	CLOCK_Container_Transitions:
 1187 0090 0200     		.short	2
 1188 0092 0000     		.space	2
 1189 0094 00000000 		.word	STATE_CLOCK_C_ISDISPLAYING_Transitions
 1190 0098 0200     		.short	2
 1191 009a 0000     		.space	2
 1192 009c 0000     		.short	0
 1193 009e 0000     		.space	2
 1194 00a0 00000000 		.word	STATE_CLOCK_C_ISEDITINGHOURS_Transitions
 1195 00a4 0400     		.short	4
 1196 00a6 0000     		.space	2
 1197 00a8 0100     		.short	1
 1198 00aa 0000     		.space	2
 1199 00ac 00000000 		.word	STATE_CLOCK_C_ISEDITINGMINUTES_Transitions
 1200 00b0 0400     		.short	4
 1201 00b2 0000     		.space	2
 1202              		.type	STATE_CLOCK_C_ISEDITINGMINUTES_Transitions, %object
 1203              		.size	STATE_CLOCK_C_ISEDITINGMINUTES_Transitions, 48
 1204              	STATE_CLOCK_C_ISEDITINGMINUTES_Transitions:
 1205 00b4 0100     		.short	1
 1206 00b6 0200     		.short	2
 1207 00b8 00000000 		.word	0
 1208 00bc 00000000 		.word	CLOCK_dispatch_KL_Min
 1209 00c0 0200     		.short	2
 1210 00c2 0100     		.short	1
 1211 00c4 00000000 		.word	0
 1212 00c8 00000000 		.word	CLOCK_dispatch_KR_Min
 1213 00cc 0300     		.short	3
 1214 00ce 0100     		.short	1
 1215 00d0 00000000 		.word	0
 1216 00d4 00000000 		.word	CLOCK_dispatch_KRLP_Min
 1217 00d8 0400     		.short	4
 1218 00da 0100     		.short	1
 1219 00dc 00000000 		.word	0
 1220 00e0 00000000 		.word	CLOCK_dispatch_250MS_Min
 1221              		.type	STATE_CLOCK_C_ISEDITINGHOURS_Transitions, %object
 1222              		.size	STATE_CLOCK_C_ISEDITINGHOURS_Transitions, 48
 1223              	STATE_CLOCK_C_ISEDITINGHOURS_Transitions:
 1224 00e4 0100     		.short	1
 1225 00e6 0100     		.short	1
 1226 00e8 00000000 		.word	0
 1227 00ec 00000000 		.word	CLOCK_dispatch_KL_HoursMin
 1228 00f0 0200     		.short	2
 1229 00f2 0000     		.short	0
 1230 00f4 00000000 		.word	0
 1231 00f8 00000000 		.word	CLOCK_dispatch_KR_Hours
 1232 00fc 0300     		.short	3
 1233 00fe 0000     		.short	0
 1234 0100 00000000 		.word	0
 1235 0104 00000000 		.word	CLOCK_dispatch_KRLP_Hours
 1236 0108 0400     		.short	4
 1237 010a 0000     		.short	0
 1238 010c 00000000 		.word	0
 1239 0110 00000000 		.word	CLOCK_dispatch_250MS_Hours
 1240              		.type	STATE_CLOCK_C_ISDISPLAYING_Transitions, %object
ARM GAS  C:\Users\mau_g\AppData\Local\Temp\ccUsGJqR.s 			page 37


 1241              		.size	STATE_CLOCK_C_ISDISPLAYING_Transitions, 24
 1242              	STATE_CLOCK_C_ISDISPLAYING_Transitions:
 1243 0114 0100     		.short	1
 1244 0116 0000     		.short	0
 1245 0118 00000000 		.word	0
 1246 011c 00000000 		.word	CLOCK_dispatch_KL_Hours
 1247 0120 0500     		.short	5
 1248 0122 0200     		.short	2
 1249 0124 00000000 		.word	0
 1250 0128 00000000 		.word	CLOCK_increment1Minute
 1251              		.data
 1252              		.align	2
 1253              		.set	.LANCHOR0,. + 0
 1254              		.type	CLOCK_hourWidget, %object
 1255              		.size	CLOCK_hourWidget, 16
 1256              	CLOCK_hourWidget:
 1257 0000 00000000 		.word	CLOCK_Widget_Transitions
 1258 0004 0300     		.short	3
 1259 0006 0000     		.space	2
 1260 0008 84000000 		.word	CLOCK_StateActions
 1261 000c 0100     		.short	1
 1262 000e 0500     		.short	5
 1263              		.type	CLOCK_minuteWidget, %object
 1264              		.size	CLOCK_minuteWidget, 16
 1265              	CLOCK_minuteWidget:
 1266 0010 00000000 		.word	CLOCK_Widget_Transitions
 1267 0014 0300     		.short	3
 1268 0016 0000     		.space	2
 1269 0018 84000000 		.word	CLOCK_StateActions
 1270 001c 0100     		.short	1
 1271 001e 0500     		.short	5
 1272              		.type	CLOCK_fsm, %object
 1273              		.size	CLOCK_fsm, 16
 1274              	CLOCK_fsm:
 1275 0020 00000000 		.word	CLOCK_Container_Transitions
 1276 0024 0300     		.short	3
 1277 0026 0000     		.space	2
 1278 0028 84000000 		.word	CLOCK_StateActions
 1279 002c 0100     		.short	1
 1280 002e 0200     		.short	2
 1281              		.section	.rodata.str1.4,"aMS",%progbits,1
 1282              		.align	2
 1283              	.LC0:
 1284 0000 55706461 		.ascii	"Update Time \012\000"
 1284      74652054 
 1284      696D6520 
 1284      0A00
 1285 000e 0000     		.space	2
 1286              	.LC1:
 1287 0010 53657420 		.ascii	"Set Edit Fonts \012\000"
 1287      45646974 
 1287      20466F6E 
 1287      7473200A 
 1287      00
 1288 0021 000000   		.space	3
 1289              	.LC2:
 1290 0024 53657420 		.ascii	"Set Display Fonts \012\000"
ARM GAS  C:\Users\mau_g\AppData\Local\Temp\ccUsGJqR.s 			page 38


 1290      44697370 
 1290      6C617920 
 1290      466F6E74 
 1290      73200A00 
 1291              	.LC3:
 1292 0038 496E6372 		.ascii	"Increment Widget \012\000"
 1292      656D656E 
 1292      74205769 
 1292      64676574 
 1292      200A00
 1293 004b 00       		.space	1
 1294              	.LC4:
 1295 004c 496E6372 		.ascii	"Increment 1 Minute \012\000"
 1295      656D656E 
 1295      74203120 
 1295      4D696E75 
 1295      7465200A 
 1296 0061 000000   		.space	3
 1297              	.LC5:
 1298 0064 44697370 		.ascii	"Dispatch KL Hours \012\000"
 1298      61746368 
 1298      204B4C20 
 1298      486F7572 
 1298      73200A00 
 1299              	.LC6:
 1300 0078 44697370 		.ascii	"Dispatch 250MS Hours \012\000"
 1300      61746368 
 1300      20323530 
 1300      4D532048 
 1300      6F757273 
 1301 008f 00       		.space	1
 1302              	.LC7:
 1303 0090 44697370 		.ascii	"Dispatch KRLP Hours \012\000"
 1303      61746368 
 1303      204B524C 
 1303      5020486F 
 1303      75727320 
 1304 00a6 0000     		.space	2
 1305              	.LC8:
 1306 00a8 44697370 		.ascii	"Dispatch KR Hours \012\000"
 1306      61746368 
 1306      204B5220 
 1306      486F7572 
 1306      73200A00 
 1307              	.LC9:
 1308 00bc 44697370 		.ascii	"Dispatch KL Hours Min \012\000"
 1308      61746368 
 1308      204B4C20 
 1308      486F7572 
 1308      73204D69 
 1309              	.LC10:
 1310 00d4 44697370 		.ascii	"Dispatch 250MS Min \012\000"
 1310      61746368 
 1310      20323530 
 1310      4D53204D 
 1310      696E200A 
 1311 00e9 000000   		.space	3
ARM GAS  C:\Users\mau_g\AppData\Local\Temp\ccUsGJqR.s 			page 39


 1312              	.LC11:
 1313 00ec 44697370 		.ascii	"Dispatch KRLP Min \012\000"
 1313      61746368 
 1313      204B524C 
 1313      50204D69 
 1313      6E200A00 
 1314              	.LC12:
 1315 0100 44697370 		.ascii	"Dispatch KR Min \012\000"
 1315      61746368 
 1315      204B5220 
 1315      4D696E20 
 1315      0A00
 1316 0112 0000     		.space	2
 1317              	.LC13:
 1318 0114 44697370 		.ascii	"Dispatch KL Min \012\000"
 1318      61746368 
 1318      204B4C20 
 1318      4D696E20 
 1318      0A00
 1319              		.text
 1320              	.Letext0:
 1321              		.file 3 "c:\\program files (x86)\\cypress\\psoc creator\\4.4\\psoc creator\\import\\gnu\\arm\\5.4.
 1322              		.file 4 "c:\\program files (x86)\\cypress\\psoc creator\\4.4\\psoc creator\\import\\gnu\\arm\\5.4.
 1323              		.file 5 "c:\\program files (x86)\\cypress\\psoc creator\\4.4\\psoc creator\\import\\gnu\\arm\\5.4.
 1324              		.file 6 "Generated_Source\\PSoC5/ErikaOS_1_common_ee_types.inc"
 1325              		.file 7 "Generated_Source\\PSoC5/ErikaOS_1_cortex_mx_ee_cpu.inc"
 1326              		.file 8 "Generated_Source\\PSoC5/ErikaOS_1_ee_oo_common.inc"
 1327              		.file 9 ".\\Source\\bsw/global.h"
 1328              		.file 10 ".\\Source\\asw/statemachine.h"
 1329              		.file 11 ".\\Source\\rte/rte_types.h"
 1330              		.file 12 ".\\Source\\rte/rte.h"
 1331              		.file 13 ".\\Source\\rte/sc_event_type.h"
 1332              		.file 14 ".\\Source\\rte/sc_clock_type.h"
 1333              		.file 15 "Generated_Source\\PSoC5/ErikaOS_1_ee_oo_intfunc.inc"
 1334              		.file 16 "Generated_Source\\PSoC5/ErikaOS_1_cortex_mx_ee_context.inc"
 1335              		.file 17 "Generated_Source\\PSoC5/ErikaOS_1_common_ee_primitives.inc"
 1336              		.file 18 "Generated_Source\\PSoC5/core_cm3.h"
 1337              		.file 19 ".\\Source\\rte/sp_common.h"
 1338              		.file 20 "Generated_Source\\PSoC5/ErikaOS_1_ee_oo_kernel.inc"
 1339              		.file 21 "Generated_Source\\PSoC5/UART_LOG.h"