ARM GAS  C:\Users\mau_g\AppData\Local\Temp\cc9UAEog.s 			page 1


   1              		.syntax unified
   2              		.cpu cortex-m3
   3              		.fpu softvfp
   4              		.eabi_attribute 20, 1
   5              		.eabi_attribute 21, 1
   6              		.eabi_attribute 23, 3
   7              		.eabi_attribute 24, 1
   8              		.eabi_attribute 25, 1
   9              		.eabi_attribute 26, 1
  10              		.eabi_attribute 30, 1
  11              		.eabi_attribute 34, 1
  12              		.eabi_attribute 18, 4
  13              		.thumb
  14              		.syntax unified
  15              		.file	"main.c"
  16              		.text
  17              	.Ltext0:
  18              		.cfi_sections	.debug_frame
  19              		.section	.text.ISR2_systick_handler,"ax",%progbits
  20              		.align	2
  21              		.global	ISR2_systick_handler
  22              		.thumb
  23              		.thumb_func
  24              		.type	ISR2_systick_handler, %function
  25              	ISR2_systick_handler:
  26              	.LFB142:
  27              		.file 1 "Source\\asw\\main.c"
   1:Source\asw/main.c **** /* ========================================
   2:Source\asw/main.c ****  *
   3:Source\asw/main.c ****  * Copyright YOUR COMPANY, THE YEAR
   4:Source\asw/main.c ****  * All Rights Reserved
   5:Source\asw/main.c ****  * UNPUBLISHED, LICENSED SOFTWARE.
   6:Source\asw/main.c ****  *
   7:Source\asw/main.c ****  * CONFIDENTIAL AND PROPRIETARY INFORMATION
   8:Source\asw/main.c ****  * WHICH IS THE PROPERTY OF your company.
   9:Source\asw/main.c ****  *
  10:Source\asw/main.c ****  * ========================================
  11:Source\asw/main.c **** */
  12:Source\asw/main.c **** 
  13:Source\asw/main.c **** #include "project.h"
  14:Source\asw/main.c **** #include "global.h"
  15:Source\asw/main.c **** #include "button.h"
  16:Source\asw/main.c **** #include "tft.h"
  17:Source\asw/main.c **** #include "sp_common.h"
  18:Source\asw/main.c **** 
  19:Source\asw/main.c **** //#include "seven.h"
  20:Source\asw/main.c **** //#include "led.h"
  21:Source\asw/main.c **** //#include "joystick.h"
  22:Source\asw/main.c **** 
  23:Source\asw/main.c **** 
  24:Source\asw/main.c **** ISR(systick_handler)
  25:Source\asw/main.c **** {
  28              		.loc 1 25 0
  29              		.cfi_startproc
  30              		@ args = 0, pretend = 0, frame = 0
  31              		@ frame_needed = 0, uses_anonymous_args = 0
  32 0000 08B5     		push	{r3, lr}
ARM GAS  C:\Users\mau_g\AppData\Local\Temp\cc9UAEog.s 			page 2


  33              		.cfi_def_cfa_offset 8
  34              		.cfi_offset 3, -8
  35              		.cfi_offset 14, -4
  26:Source\asw/main.c ****     CounterTick(cnt_systick);
  36              		.loc 1 26 0
  37 0002 0020     		movs	r0, #0
  38 0004 FFF7FEFF 		bl	EE_oo_IncrementCounter
  39              	.LVL0:
  40 0008 08BD     		pop	{r3, pc}
  41              		.cfi_endproc
  42              	.LFE142:
  43              		.size	ISR2_systick_handler, .-ISR2_systick_handler
  44 000a 00BF     		.section	.text.systick_handler,"ax",%progbits
  45              		.align	2
  46              		.global	systick_handler
  47              		.thumb
  48              		.thumb_func
  49              		.type	systick_handler, %function
  50              	systick_handler:
  51              	.LFB141:
  24:Source\asw/main.c **** {
  52              		.loc 1 24 0
  53              		.cfi_startproc
  54              		@ Stack Align: May be called with mis-aligned SP.
  55              		@ args = 0, pretend = 0, frame = 0
  56              		@ frame_needed = 0, uses_anonymous_args = 0
  57 0000 6846     		mov	r0, sp
  58              		.cfi_register 13, 0
  59 0002 20F00701 		bic	r1, r0, #7
  60 0006 8D46     		mov	sp, r1
  61 0008 19B5     		push	{r0, r3, r4, lr}
  62              		.cfi_def_cfa_offset 16
  63              		.cfi_offset 13, -16
  64              		.cfi_offset 3, -12
  65              		.cfi_offset 4, -8
  66              		.cfi_offset 14, -4
  67              	.LVL1:
  68              	.LBB62:
  69              	.LBB63:
  70              		.file 2 "Generated_Source\\PSoC5/ErikaOS_1_cortex_mx_ee_cpu.inc"
   1:Generated_Source\PSoC5/ErikaOS_1_cortex_mx_ee_cpu.inc **** /* ###*B*###
   2:Generated_Source\PSoC5/ErikaOS_1_cortex_mx_ee_cpu.inc ****  * ERIKA Enterprise - a tiny RTOS for small microcontrollers
   3:Generated_Source\PSoC5/ErikaOS_1_cortex_mx_ee_cpu.inc ****  *
   4:Generated_Source\PSoC5/ErikaOS_1_cortex_mx_ee_cpu.inc ****  * Copyright (C) 2002-2011  Evidence Srl
   5:Generated_Source\PSoC5/ErikaOS_1_cortex_mx_ee_cpu.inc ****  *
   6:Generated_Source\PSoC5/ErikaOS_1_cortex_mx_ee_cpu.inc ****  * This file is part of ERIKA Enterprise.
   7:Generated_Source\PSoC5/ErikaOS_1_cortex_mx_ee_cpu.inc ****  *
   8:Generated_Source\PSoC5/ErikaOS_1_cortex_mx_ee_cpu.inc ****  * ERIKA Enterprise is free software; you can redistribute it
   9:Generated_Source\PSoC5/ErikaOS_1_cortex_mx_ee_cpu.inc ****  * and/or modify it under the terms of the GNU General Public License
  10:Generated_Source\PSoC5/ErikaOS_1_cortex_mx_ee_cpu.inc ****  * version 2 as published by the Free Software Foundation, 
  11:Generated_Source\PSoC5/ErikaOS_1_cortex_mx_ee_cpu.inc ****  * (with a special exception described below).
  12:Generated_Source\PSoC5/ErikaOS_1_cortex_mx_ee_cpu.inc ****  *
  13:Generated_Source\PSoC5/ErikaOS_1_cortex_mx_ee_cpu.inc ****  * Linking this code statically or dynamically with other modules is
  14:Generated_Source\PSoC5/ErikaOS_1_cortex_mx_ee_cpu.inc ****  * making a combined work based on this code.  Thus, the terms and
  15:Generated_Source\PSoC5/ErikaOS_1_cortex_mx_ee_cpu.inc ****  * conditions of the GNU General Public License cover the whole
  16:Generated_Source\PSoC5/ErikaOS_1_cortex_mx_ee_cpu.inc ****  * combination.
  17:Generated_Source\PSoC5/ErikaOS_1_cortex_mx_ee_cpu.inc ****  *
ARM GAS  C:\Users\mau_g\AppData\Local\Temp\cc9UAEog.s 			page 3


  18:Generated_Source\PSoC5/ErikaOS_1_cortex_mx_ee_cpu.inc ****  * As a special exception, the copyright holders of this library give you
  19:Generated_Source\PSoC5/ErikaOS_1_cortex_mx_ee_cpu.inc ****  * permission to link this code with independent modules to produce an
  20:Generated_Source\PSoC5/ErikaOS_1_cortex_mx_ee_cpu.inc ****  * executable, regardless of the license terms of these independent
  21:Generated_Source\PSoC5/ErikaOS_1_cortex_mx_ee_cpu.inc ****  * modules, and to copy and distribute the resulting executable under
  22:Generated_Source\PSoC5/ErikaOS_1_cortex_mx_ee_cpu.inc ****  * terms of your choice, provided that you also meet, for each linked
  23:Generated_Source\PSoC5/ErikaOS_1_cortex_mx_ee_cpu.inc ****  * independent module, the terms and conditions of the license of that
  24:Generated_Source\PSoC5/ErikaOS_1_cortex_mx_ee_cpu.inc ****  * module.  An independent module is a module which is not derived from
  25:Generated_Source\PSoC5/ErikaOS_1_cortex_mx_ee_cpu.inc ****  * or based on this library.  If you modify this code, you may extend
  26:Generated_Source\PSoC5/ErikaOS_1_cortex_mx_ee_cpu.inc ****  * this exception to your version of the code, but you are not
  27:Generated_Source\PSoC5/ErikaOS_1_cortex_mx_ee_cpu.inc ****  * obligated to do so.  If you do not wish to do so, delete this
  28:Generated_Source\PSoC5/ErikaOS_1_cortex_mx_ee_cpu.inc ****  * exception statement from your version.
  29:Generated_Source\PSoC5/ErikaOS_1_cortex_mx_ee_cpu.inc ****  *
  30:Generated_Source\PSoC5/ErikaOS_1_cortex_mx_ee_cpu.inc ****  * ERIKA Enterprise is distributed in the hope that it will be
  31:Generated_Source\PSoC5/ErikaOS_1_cortex_mx_ee_cpu.inc ****  * useful, but WITHOUT ANY WARRANTY; without even the implied warranty
  32:Generated_Source\PSoC5/ErikaOS_1_cortex_mx_ee_cpu.inc ****  * of MERCHANTABILITY or FITNESS FOR A PARTICULAR PURPOSE.  See the
  33:Generated_Source\PSoC5/ErikaOS_1_cortex_mx_ee_cpu.inc ****  * GNU General Public License version 2 for more details.
  34:Generated_Source\PSoC5/ErikaOS_1_cortex_mx_ee_cpu.inc ****  *
  35:Generated_Source\PSoC5/ErikaOS_1_cortex_mx_ee_cpu.inc ****  * You should have received a copy of the GNU General Public License
  36:Generated_Source\PSoC5/ErikaOS_1_cortex_mx_ee_cpu.inc ****  * version 2 along with ERIKA Enterprise; if not, write to the
  37:Generated_Source\PSoC5/ErikaOS_1_cortex_mx_ee_cpu.inc ****  * Free Software Foundation, Inc., 51 Franklin Street, Fifth Floor,
  38:Generated_Source\PSoC5/ErikaOS_1_cortex_mx_ee_cpu.inc ****  * Boston, MA 02110-1301 USA.
  39:Generated_Source\PSoC5/ErikaOS_1_cortex_mx_ee_cpu.inc ****  * ###*E*### */
  40:Generated_Source\PSoC5/ErikaOS_1_cortex_mx_ee_cpu.inc **** 
  41:Generated_Source\PSoC5/ErikaOS_1_cortex_mx_ee_cpu.inc **** /** 
  42:Generated_Source\PSoC5/ErikaOS_1_cortex_mx_ee_cpu.inc **** 	@file ee_cpu.h
  43:Generated_Source\PSoC5/ErikaOS_1_cortex_mx_ee_cpu.inc **** 	@brief CPU-dependent part of HAL. Derived from pkg/cpu/pic30/inc/ee_cpu.h
  44:Generated_Source\PSoC5/ErikaOS_1_cortex_mx_ee_cpu.inc **** 	@author Gianluca Franchino
  45:Generated_Source\PSoC5/ErikaOS_1_cortex_mx_ee_cpu.inc **** 	@author Giuseppe Serano
  46:Generated_Source\PSoC5/ErikaOS_1_cortex_mx_ee_cpu.inc **** 	@date 2011
  47:Generated_Source\PSoC5/ErikaOS_1_cortex_mx_ee_cpu.inc **** */ 
  48:Generated_Source\PSoC5/ErikaOS_1_cortex_mx_ee_cpu.inc ****     
  49:Generated_Source\PSoC5/ErikaOS_1_cortex_mx_ee_cpu.inc **** /*
  50:Generated_Source\PSoC5/ErikaOS_1_cortex_mx_ee_cpu.inc ****  * PSoC Port and API Generation
  51:Generated_Source\PSoC5/ErikaOS_1_cortex_mx_ee_cpu.inc ****  * Carlos Fernando Meier Martinez
  52:Generated_Source\PSoC5/ErikaOS_1_cortex_mx_ee_cpu.inc ****  * Hochschule Darmstadt, Germany. 2017.
  53:Generated_Source\PSoC5/ErikaOS_1_cortex_mx_ee_cpu.inc ****  */
  54:Generated_Source\PSoC5/ErikaOS_1_cortex_mx_ee_cpu.inc **** 
  55:Generated_Source\PSoC5/ErikaOS_1_cortex_mx_ee_cpu.inc **** #ifndef __INCLUDE_CORTEX_MX_EE_CPU_H__
  56:Generated_Source\PSoC5/ErikaOS_1_cortex_mx_ee_cpu.inc **** #define __INCLUDE_CORTEX_MX_EE_CPU_H__
  57:Generated_Source\PSoC5/ErikaOS_1_cortex_mx_ee_cpu.inc **** 
  58:Generated_Source\PSoC5/ErikaOS_1_cortex_mx_ee_cpu.inc **** #include "ErikaOS_1_eecfg.inc"
  59:Generated_Source\PSoC5/ErikaOS_1_cortex_mx_ee_cpu.inc **** 
  60:Generated_Source\PSoC5/ErikaOS_1_cortex_mx_ee_cpu.inc **** 
  61:Generated_Source\PSoC5/ErikaOS_1_cortex_mx_ee_cpu.inc **** #ifdef __GNU__
  62:Generated_Source\PSoC5/ErikaOS_1_cortex_mx_ee_cpu.inc **** #include "ErikaOS_1_common_ee_compiler_gcc.inc"
  63:Generated_Source\PSoC5/ErikaOS_1_cortex_mx_ee_cpu.inc **** #endif
  64:Generated_Source\PSoC5/ErikaOS_1_cortex_mx_ee_cpu.inc **** 
  65:Generated_Source\PSoC5/ErikaOS_1_cortex_mx_ee_cpu.inc **** /* Initial stack offset (in words): Used in multistack. */
  66:Generated_Source\PSoC5/ErikaOS_1_cortex_mx_ee_cpu.inc **** #ifndef CORTEX_MX_INIT_TOS_OFFSET
  67:Generated_Source\PSoC5/ErikaOS_1_cortex_mx_ee_cpu.inc **** #define CORTEX_MX_INIT_TOS_OFFSET 10
  68:Generated_Source\PSoC5/ErikaOS_1_cortex_mx_ee_cpu.inc **** #endif
  69:Generated_Source\PSoC5/ErikaOS_1_cortex_mx_ee_cpu.inc **** 
  70:Generated_Source\PSoC5/ErikaOS_1_cortex_mx_ee_cpu.inc **** /*************************************************************************
  71:Generated_Source\PSoC5/ErikaOS_1_cortex_mx_ee_cpu.inc ****  HAL Types and structures
  72:Generated_Source\PSoC5/ErikaOS_1_cortex_mx_ee_cpu.inc ****  *************************************************************************/
  73:Generated_Source\PSoC5/ErikaOS_1_cortex_mx_ee_cpu.inc **** 
  74:Generated_Source\PSoC5/ErikaOS_1_cortex_mx_ee_cpu.inc **** /* Primitive data types */
ARM GAS  C:\Users\mau_g\AppData\Local\Temp\cc9UAEog.s 			page 4


  75:Generated_Source\PSoC5/ErikaOS_1_cortex_mx_ee_cpu.inc **** #include "ErikaOS_1_common_ee_types.inc"
  76:Generated_Source\PSoC5/ErikaOS_1_cortex_mx_ee_cpu.inc **** 
  77:Generated_Source\PSoC5/ErikaOS_1_cortex_mx_ee_cpu.inc **** typedef EE_UINT32 EE_UREG;
  78:Generated_Source\PSoC5/ErikaOS_1_cortex_mx_ee_cpu.inc **** typedef EE_INT32  EE_SREG;
  79:Generated_Source\PSoC5/ErikaOS_1_cortex_mx_ee_cpu.inc **** typedef EE_UINT32 EE_FREG;
  80:Generated_Source\PSoC5/ErikaOS_1_cortex_mx_ee_cpu.inc **** #define EE_UREG_SIZE 4
  81:Generated_Source\PSoC5/ErikaOS_1_cortex_mx_ee_cpu.inc **** 
  82:Generated_Source\PSoC5/ErikaOS_1_cortex_mx_ee_cpu.inc **** /* boolean type */
  83:Generated_Source\PSoC5/ErikaOS_1_cortex_mx_ee_cpu.inc **** #ifndef EE_TYPEBOOL
  84:Generated_Source\PSoC5/ErikaOS_1_cortex_mx_ee_cpu.inc **** typedef EE_UREG EE_TYPEBOOL;
  85:Generated_Source\PSoC5/ErikaOS_1_cortex_mx_ee_cpu.inc **** #endif
  86:Generated_Source\PSoC5/ErikaOS_1_cortex_mx_ee_cpu.inc **** 
  87:Generated_Source\PSoC5/ErikaOS_1_cortex_mx_ee_cpu.inc **** /* boolean true define */
  88:Generated_Source\PSoC5/ErikaOS_1_cortex_mx_ee_cpu.inc **** #ifndef EE_TRUE
  89:Generated_Source\PSoC5/ErikaOS_1_cortex_mx_ee_cpu.inc **** #define EE_TRUE ((EE_TYPEBOOL)1U)
  90:Generated_Source\PSoC5/ErikaOS_1_cortex_mx_ee_cpu.inc **** #endif
  91:Generated_Source\PSoC5/ErikaOS_1_cortex_mx_ee_cpu.inc **** 
  92:Generated_Source\PSoC5/ErikaOS_1_cortex_mx_ee_cpu.inc **** /* boolean false define */
  93:Generated_Source\PSoC5/ErikaOS_1_cortex_mx_ee_cpu.inc **** #ifndef EE_FALSE
  94:Generated_Source\PSoC5/ErikaOS_1_cortex_mx_ee_cpu.inc **** #define EE_FALSE ((EE_TYPEBOOL)0U)
  95:Generated_Source\PSoC5/ErikaOS_1_cortex_mx_ee_cpu.inc **** #endif
  96:Generated_Source\PSoC5/ErikaOS_1_cortex_mx_ee_cpu.inc **** 
  97:Generated_Source\PSoC5/ErikaOS_1_cortex_mx_ee_cpu.inc **** #define	EE_HWREG_PTR		volatile EE_UREG *
  98:Generated_Source\PSoC5/ErikaOS_1_cortex_mx_ee_cpu.inc **** #define	EE_HWREG_ADDR(x)	((EE_HWREG_PTR)(x))
  99:Generated_Source\PSoC5/ErikaOS_1_cortex_mx_ee_cpu.inc **** #define	EE_HWREG(x)		(*EE_HWREG_ADDR(x))
 100:Generated_Source\PSoC5/ErikaOS_1_cortex_mx_ee_cpu.inc **** 
 101:Generated_Source\PSoC5/ErikaOS_1_cortex_mx_ee_cpu.inc **** #ifdef __GNU__
 102:Generated_Source\PSoC5/ErikaOS_1_cortex_mx_ee_cpu.inc **** 
 103:Generated_Source\PSoC5/ErikaOS_1_cortex_mx_ee_cpu.inc **** /* Get current SP */
 104:Generated_Source\PSoC5/ErikaOS_1_cortex_mx_ee_cpu.inc **** __INLINE__ EE_UINT32  __current_sp(void)
 105:Generated_Source\PSoC5/ErikaOS_1_cortex_mx_ee_cpu.inc **** {
 106:Generated_Source\PSoC5/ErikaOS_1_cortex_mx_ee_cpu.inc **** EE_UINT32 temp;
 107:Generated_Source\PSoC5/ErikaOS_1_cortex_mx_ee_cpu.inc **** __ASM ("mov %0, sp" : "=r" (temp) : );
 108:Generated_Source\PSoC5/ErikaOS_1_cortex_mx_ee_cpu.inc **** return temp;
 109:Generated_Source\PSoC5/ErikaOS_1_cortex_mx_ee_cpu.inc **** }
 110:Generated_Source\PSoC5/ErikaOS_1_cortex_mx_ee_cpu.inc **** 
 111:Generated_Source\PSoC5/ErikaOS_1_cortex_mx_ee_cpu.inc **** /* Set a breakpoint */
 112:Generated_Source\PSoC5/ErikaOS_1_cortex_mx_ee_cpu.inc **** #define __breakpoint(value)	__ASM ("bkpt "#value)
 113:Generated_Source\PSoC5/ErikaOS_1_cortex_mx_ee_cpu.inc **** 
 114:Generated_Source\PSoC5/ErikaOS_1_cortex_mx_ee_cpu.inc **** #endif
 115:Generated_Source\PSoC5/ErikaOS_1_cortex_mx_ee_cpu.inc **** 
 116:Generated_Source\PSoC5/ErikaOS_1_cortex_mx_ee_cpu.inc **** /* ISR Priority representation type */
 117:Generated_Source\PSoC5/ErikaOS_1_cortex_mx_ee_cpu.inc **** typedef EE_UREG EE_TYPEISR2PRIO;
 118:Generated_Source\PSoC5/ErikaOS_1_cortex_mx_ee_cpu.inc **** 
 119:Generated_Source\PSoC5/ErikaOS_1_cortex_mx_ee_cpu.inc **** /* Thread IDs */
 120:Generated_Source\PSoC5/ErikaOS_1_cortex_mx_ee_cpu.inc **** typedef EE_INT32 EE_TID;
 121:Generated_Source\PSoC5/ErikaOS_1_cortex_mx_ee_cpu.inc **** 
 122:Generated_Source\PSoC5/ErikaOS_1_cortex_mx_ee_cpu.inc **** /* Thread IDs - unsigned version*/
 123:Generated_Source\PSoC5/ErikaOS_1_cortex_mx_ee_cpu.inc **** typedef EE_UINT32 EE_UTID;
 124:Generated_Source\PSoC5/ErikaOS_1_cortex_mx_ee_cpu.inc **** 
 125:Generated_Source\PSoC5/ErikaOS_1_cortex_mx_ee_cpu.inc **** /* Used by the common layer to decide whether to start a new thread */
 126:Generated_Source\PSoC5/ErikaOS_1_cortex_mx_ee_cpu.inc **** #define TID_IS_STACKED_MARK 0x80000000
 127:Generated_Source\PSoC5/ErikaOS_1_cortex_mx_ee_cpu.inc **** 
 128:Generated_Source\PSoC5/ErikaOS_1_cortex_mx_ee_cpu.inc **** /* EE_TYPEIRQ is currently unused */
 129:Generated_Source\PSoC5/ErikaOS_1_cortex_mx_ee_cpu.inc **** 
 130:Generated_Source\PSoC5/ErikaOS_1_cortex_mx_ee_cpu.inc **** /* XXX: define EE_TIME? */
 131:Generated_Source\PSoC5/ErikaOS_1_cortex_mx_ee_cpu.inc **** 
ARM GAS  C:\Users\mau_g\AppData\Local\Temp\cc9UAEog.s 			page 5


 132:Generated_Source\PSoC5/ErikaOS_1_cortex_mx_ee_cpu.inc **** /* Use the "standard" implementation */
 133:Generated_Source\PSoC5/ErikaOS_1_cortex_mx_ee_cpu.inc **** #include "ErikaOS_1_common_ee_hal_structs.inc"
 134:Generated_Source\PSoC5/ErikaOS_1_cortex_mx_ee_cpu.inc **** 
 135:Generated_Source\PSoC5/ErikaOS_1_cortex_mx_ee_cpu.inc **** /******************************************************************************
 136:Generated_Source\PSoC5/ErikaOS_1_cortex_mx_ee_cpu.inc ****  Application dependent data types
 137:Generated_Source\PSoC5/ErikaOS_1_cortex_mx_ee_cpu.inc ****  ******************************************************************************/
 138:Generated_Source\PSoC5/ErikaOS_1_cortex_mx_ee_cpu.inc **** 
 139:Generated_Source\PSoC5/ErikaOS_1_cortex_mx_ee_cpu.inc **** #ifdef	__HAS_TYPES_H__
 140:Generated_Source\PSoC5/ErikaOS_1_cortex_mx_ee_cpu.inc **** #include	"types.h"
 141:Generated_Source\PSoC5/ErikaOS_1_cortex_mx_ee_cpu.inc **** #endif
 142:Generated_Source\PSoC5/ErikaOS_1_cortex_mx_ee_cpu.inc **** 
 143:Generated_Source\PSoC5/ErikaOS_1_cortex_mx_ee_cpu.inc **** /******************************************************************************
 144:Generated_Source\PSoC5/ErikaOS_1_cortex_mx_ee_cpu.inc ****  CPU Peripherals
 145:Generated_Source\PSoC5/ErikaOS_1_cortex_mx_ee_cpu.inc ****  ******************************************************************************/
 146:Generated_Source\PSoC5/ErikaOS_1_cortex_mx_ee_cpu.inc **** 
 147:Generated_Source\PSoC5/ErikaOS_1_cortex_mx_ee_cpu.inc **** #ifdef __CORTEX_MX__
 148:Generated_Source\PSoC5/ErikaOS_1_cortex_mx_ee_cpu.inc **** #include "ErikaOS_1_cortex_mx_ee_nvic.inc"
 149:Generated_Source\PSoC5/ErikaOS_1_cortex_mx_ee_cpu.inc **** #include "ErikaOS_1_cortex_mx_ee_systick.inc"
 150:Generated_Source\PSoC5/ErikaOS_1_cortex_mx_ee_cpu.inc **** #endif
 151:Generated_Source\PSoC5/ErikaOS_1_cortex_mx_ee_cpu.inc **** 
 152:Generated_Source\PSoC5/ErikaOS_1_cortex_mx_ee_cpu.inc **** /******************************************************************************
 153:Generated_Source\PSoC5/ErikaOS_1_cortex_mx_ee_cpu.inc ****  HAL Variables
 154:Generated_Source\PSoC5/ErikaOS_1_cortex_mx_ee_cpu.inc ****  ******************************************************************************/
 155:Generated_Source\PSoC5/ErikaOS_1_cortex_mx_ee_cpu.inc **** 
 156:Generated_Source\PSoC5/ErikaOS_1_cortex_mx_ee_cpu.inc **** #ifdef __MULTI__
 157:Generated_Source\PSoC5/ErikaOS_1_cortex_mx_ee_cpu.inc **** 
 158:Generated_Source\PSoC5/ErikaOS_1_cortex_mx_ee_cpu.inc **** /* Top-of-stack of each private stack */
 159:Generated_Source\PSoC5/ErikaOS_1_cortex_mx_ee_cpu.inc **** extern struct EE_TOS EE_cortex_mx_system_tos[];
 160:Generated_Source\PSoC5/ErikaOS_1_cortex_mx_ee_cpu.inc **** //#define	EE_std_system_tos EE_cortex_mx_system_tos
 161:Generated_Source\PSoC5/ErikaOS_1_cortex_mx_ee_cpu.inc **** 
 162:Generated_Source\PSoC5/ErikaOS_1_cortex_mx_ee_cpu.inc **** /* Index of the current stack */
 163:Generated_Source\PSoC5/ErikaOS_1_cortex_mx_ee_cpu.inc **** extern EE_UREG EE_cortex_mx_active_tos;
 164:Generated_Source\PSoC5/ErikaOS_1_cortex_mx_ee_cpu.inc **** #define	EE_hal_active_tos EE_cortex_mx_active_tos
 165:Generated_Source\PSoC5/ErikaOS_1_cortex_mx_ee_cpu.inc **** 
 166:Generated_Source\PSoC5/ErikaOS_1_cortex_mx_ee_cpu.inc **** /*extern	EE_UREG EE_pic30_thread_tos[];
 167:Generated_Source\PSoC5/ErikaOS_1_cortex_mx_ee_cpu.inc **** #define	EE_std_thread_tos EE_pic30_thread_tos */
 168:Generated_Source\PSoC5/ErikaOS_1_cortex_mx_ee_cpu.inc **** #endif /* __MULTI__ */
 169:Generated_Source\PSoC5/ErikaOS_1_cortex_mx_ee_cpu.inc **** 
 170:Generated_Source\PSoC5/ErikaOS_1_cortex_mx_ee_cpu.inc **** /*********************************************************************
 171:Generated_Source\PSoC5/ErikaOS_1_cortex_mx_ee_cpu.inc ****  Cortex M0 interrupt disabling/enabling
 172:Generated_Source\PSoC5/ErikaOS_1_cortex_mx_ee_cpu.inc ****  *********************************************************************/
 173:Generated_Source\PSoC5/ErikaOS_1_cortex_mx_ee_cpu.inc **** 
 174:Generated_Source\PSoC5/ErikaOS_1_cortex_mx_ee_cpu.inc **** /* Used to check the value returned by EE_cortex_mx_disableIRQ */
 175:Generated_Source\PSoC5/ErikaOS_1_cortex_mx_ee_cpu.inc **** #define EE_cortex_mx_are_IRQs_enabled(ie) ((ie) ^ 1)
 176:Generated_Source\PSoC5/ErikaOS_1_cortex_mx_ee_cpu.inc **** 
 177:Generated_Source\PSoC5/ErikaOS_1_cortex_mx_ee_cpu.inc **** /**
 178:Generated_Source\PSoC5/ErikaOS_1_cortex_mx_ee_cpu.inc ****  * Enable interrupts
 179:Generated_Source\PSoC5/ErikaOS_1_cortex_mx_ee_cpu.inc ****  */
 180:Generated_Source\PSoC5/ErikaOS_1_cortex_mx_ee_cpu.inc **** __INLINE__ void  EE_cortex_mx_enableIRQ(void)
 181:Generated_Source\PSoC5/ErikaOS_1_cortex_mx_ee_cpu.inc **** {
 182:Generated_Source\PSoC5/ErikaOS_1_cortex_mx_ee_cpu.inc **** #ifdef __IAR__
 183:Generated_Source\PSoC5/ErikaOS_1_cortex_mx_ee_cpu.inc **** 	__ASM ("cpsie i");
 184:Generated_Source\PSoC5/ErikaOS_1_cortex_mx_ee_cpu.inc **** #else	/* __IAR__ */
 185:Generated_Source\PSoC5/ErikaOS_1_cortex_mx_ee_cpu.inc **** #ifdef __CCS__
 186:Generated_Source\PSoC5/ErikaOS_1_cortex_mx_ee_cpu.inc **** 	__ASM ("    cpsie    i\n");
 187:Generated_Source\PSoC5/ErikaOS_1_cortex_mx_ee_cpu.inc **** #else	/* __CCS__ */
 188:Generated_Source\PSoC5/ErikaOS_1_cortex_mx_ee_cpu.inc **** #ifdef __KEIL__
ARM GAS  C:\Users\mau_g\AppData\Local\Temp\cc9UAEog.s 			page 6


 189:Generated_Source\PSoC5/ErikaOS_1_cortex_mx_ee_cpu.inc **** 	__enable_irq();
 190:Generated_Source\PSoC5/ErikaOS_1_cortex_mx_ee_cpu.inc **** #else	/* __KEIL__ */
 191:Generated_Source\PSoC5/ErikaOS_1_cortex_mx_ee_cpu.inc **** 	__ASM volatile("cpsie i");
 192:Generated_Source\PSoC5/ErikaOS_1_cortex_mx_ee_cpu.inc **** #endif	/* !__KEIL__ */
 193:Generated_Source\PSoC5/ErikaOS_1_cortex_mx_ee_cpu.inc **** #endif	/* !__CCS__ */
 194:Generated_Source\PSoC5/ErikaOS_1_cortex_mx_ee_cpu.inc **** #endif	/* !__IAR__ */
 195:Generated_Source\PSoC5/ErikaOS_1_cortex_mx_ee_cpu.inc **** }
 196:Generated_Source\PSoC5/ErikaOS_1_cortex_mx_ee_cpu.inc **** 
 197:Generated_Source\PSoC5/ErikaOS_1_cortex_mx_ee_cpu.inc **** /**
 198:Generated_Source\PSoC5/ErikaOS_1_cortex_mx_ee_cpu.inc ****  * Disable interrupts
 199:Generated_Source\PSoC5/ErikaOS_1_cortex_mx_ee_cpu.inc ****  */
 200:Generated_Source\PSoC5/ErikaOS_1_cortex_mx_ee_cpu.inc **** __INLINE__ void  EE_cortex_mx_disableIRQ(void)
 201:Generated_Source\PSoC5/ErikaOS_1_cortex_mx_ee_cpu.inc **** {
 202:Generated_Source\PSoC5/ErikaOS_1_cortex_mx_ee_cpu.inc **** #ifdef __IAR__
 203:Generated_Source\PSoC5/ErikaOS_1_cortex_mx_ee_cpu.inc **** 	__ASM ("cpsid i");
 204:Generated_Source\PSoC5/ErikaOS_1_cortex_mx_ee_cpu.inc **** #else	/* __IAR__ */
 205:Generated_Source\PSoC5/ErikaOS_1_cortex_mx_ee_cpu.inc **** #ifdef __CCS__
 206:Generated_Source\PSoC5/ErikaOS_1_cortex_mx_ee_cpu.inc **** 	__ASM ("    cpsid    i\n");
 207:Generated_Source\PSoC5/ErikaOS_1_cortex_mx_ee_cpu.inc **** #else	/* __CCS__ */
 208:Generated_Source\PSoC5/ErikaOS_1_cortex_mx_ee_cpu.inc **** #ifdef __KEIL__
 209:Generated_Source\PSoC5/ErikaOS_1_cortex_mx_ee_cpu.inc **** 	__disable_irq();
 210:Generated_Source\PSoC5/ErikaOS_1_cortex_mx_ee_cpu.inc **** #else	/* __KEIL__ */
 211:Generated_Source\PSoC5/ErikaOS_1_cortex_mx_ee_cpu.inc **** 	__ASM volatile("cpsid i");
  71              		.loc 2 211 0
  72              		.syntax unified
  73              	@ 211 "Generated_Source\PSoC5/ErikaOS_1_cortex_mx_ee_cpu.inc" 1
  74 000a 72B6     		cpsid i
  75              	@ 0 "" 2
  76              		.thumb
  77              		.syntax unified
  78              	.LBE63:
  79              	.LBE62:
  80              	.LBB64:
  81              	.LBB65:
 212:Generated_Source\PSoC5/ErikaOS_1_cortex_mx_ee_cpu.inc **** #endif	/* !__KEIL__ */
 213:Generated_Source\PSoC5/ErikaOS_1_cortex_mx_ee_cpu.inc **** #endif	/* !__CCS__ */
 214:Generated_Source\PSoC5/ErikaOS_1_cortex_mx_ee_cpu.inc **** #endif	/* !__IAR__ */
 215:Generated_Source\PSoC5/ErikaOS_1_cortex_mx_ee_cpu.inc **** }
 216:Generated_Source\PSoC5/ErikaOS_1_cortex_mx_ee_cpu.inc **** 
 217:Generated_Source\PSoC5/ErikaOS_1_cortex_mx_ee_cpu.inc **** /**
 218:Generated_Source\PSoC5/ErikaOS_1_cortex_mx_ee_cpu.inc ****  * Resume interrupts
 219:Generated_Source\PSoC5/ErikaOS_1_cortex_mx_ee_cpu.inc ****  */
 220:Generated_Source\PSoC5/ErikaOS_1_cortex_mx_ee_cpu.inc **** __INLINE__ void  EE_cortex_mx_resumeIRQ(EE_FREG f)
 221:Generated_Source\PSoC5/ErikaOS_1_cortex_mx_ee_cpu.inc **** {
 222:Generated_Source\PSoC5/ErikaOS_1_cortex_mx_ee_cpu.inc **** #ifdef __IAR__
 223:Generated_Source\PSoC5/ErikaOS_1_cortex_mx_ee_cpu.inc **** 	__set_PRIMASK(f);
 224:Generated_Source\PSoC5/ErikaOS_1_cortex_mx_ee_cpu.inc **** #else	/* __IAR__ */
 225:Generated_Source\PSoC5/ErikaOS_1_cortex_mx_ee_cpu.inc **** #ifdef __CCS__
 226:Generated_Source\PSoC5/ErikaOS_1_cortex_mx_ee_cpu.inc **** 	__ASM ("    msr    primask, r0\n");
 227:Generated_Source\PSoC5/ErikaOS_1_cortex_mx_ee_cpu.inc **** #else	/* __CCS__ */
 228:Generated_Source\PSoC5/ErikaOS_1_cortex_mx_ee_cpu.inc **** #ifdef __KEIL__
 229:Generated_Source\PSoC5/ErikaOS_1_cortex_mx_ee_cpu.inc **** 	register EE_FREG PRIMASK __ASM("primask");
 230:Generated_Source\PSoC5/ErikaOS_1_cortex_mx_ee_cpu.inc **** 	PRIMASK = f;
 231:Generated_Source\PSoC5/ErikaOS_1_cortex_mx_ee_cpu.inc **** #else	/* __KEIL__ */
 232:Generated_Source\PSoC5/ErikaOS_1_cortex_mx_ee_cpu.inc **** 	__ASM volatile("msr primask, %0" :: "r" (f));
 233:Generated_Source\PSoC5/ErikaOS_1_cortex_mx_ee_cpu.inc **** #endif	/* !__KEIL__ */
 234:Generated_Source\PSoC5/ErikaOS_1_cortex_mx_ee_cpu.inc **** #endif	/* !__CCS__ */
ARM GAS  C:\Users\mau_g\AppData\Local\Temp\cc9UAEog.s 			page 7


 235:Generated_Source\PSoC5/ErikaOS_1_cortex_mx_ee_cpu.inc **** #endif	/* !__IAR__ */
 236:Generated_Source\PSoC5/ErikaOS_1_cortex_mx_ee_cpu.inc **** }
 237:Generated_Source\PSoC5/ErikaOS_1_cortex_mx_ee_cpu.inc **** 
 238:Generated_Source\PSoC5/ErikaOS_1_cortex_mx_ee_cpu.inc **** /**
 239:Generated_Source\PSoC5/ErikaOS_1_cortex_mx_ee_cpu.inc ****  * Suspend interrupts
 240:Generated_Source\PSoC5/ErikaOS_1_cortex_mx_ee_cpu.inc ****  */
 241:Generated_Source\PSoC5/ErikaOS_1_cortex_mx_ee_cpu.inc **** __INLINE__ EE_FREG  EE_cortex_mx_suspendIRQ(void)
 242:Generated_Source\PSoC5/ErikaOS_1_cortex_mx_ee_cpu.inc **** {
 243:Generated_Source\PSoC5/ErikaOS_1_cortex_mx_ee_cpu.inc **** #ifndef __CCS__
 244:Generated_Source\PSoC5/ErikaOS_1_cortex_mx_ee_cpu.inc **** 	EE_FREG istat;
 245:Generated_Source\PSoC5/ErikaOS_1_cortex_mx_ee_cpu.inc **** #endif
 246:Generated_Source\PSoC5/ErikaOS_1_cortex_mx_ee_cpu.inc **** #ifdef __IAR__
 247:Generated_Source\PSoC5/ErikaOS_1_cortex_mx_ee_cpu.inc **** 	 istat = __get_PRIMASK();
 248:Generated_Source\PSoC5/ErikaOS_1_cortex_mx_ee_cpu.inc **** 	__ASM ("cpsid i");
 249:Generated_Source\PSoC5/ErikaOS_1_cortex_mx_ee_cpu.inc **** #else	/* __IAR__ */
 250:Generated_Source\PSoC5/ErikaOS_1_cortex_mx_ee_cpu.inc **** #ifdef __CCS__
 251:Generated_Source\PSoC5/ErikaOS_1_cortex_mx_ee_cpu.inc **** 	__ASM ("    mrs     r0, primask\n"
 252:Generated_Source\PSoC5/ErikaOS_1_cortex_mx_ee_cpu.inc **** 	       "    cpsid   i\n"
 253:Generated_Source\PSoC5/ErikaOS_1_cortex_mx_ee_cpu.inc **** 	       "    bx      lr\n");
 254:Generated_Source\PSoC5/ErikaOS_1_cortex_mx_ee_cpu.inc **** #else	/* __CCS__ */
 255:Generated_Source\PSoC5/ErikaOS_1_cortex_mx_ee_cpu.inc **** #ifdef __KEIL__
 256:Generated_Source\PSoC5/ErikaOS_1_cortex_mx_ee_cpu.inc **** 	register EE_FREG PRIMASK __ASM("primask");
 257:Generated_Source\PSoC5/ErikaOS_1_cortex_mx_ee_cpu.inc **** 	istat = PRIMASK;
 258:Generated_Source\PSoC5/ErikaOS_1_cortex_mx_ee_cpu.inc **** 	__disable_irq();
 259:Generated_Source\PSoC5/ErikaOS_1_cortex_mx_ee_cpu.inc **** #else	/* __KEIL__ */
 260:Generated_Source\PSoC5/ErikaOS_1_cortex_mx_ee_cpu.inc **** 	__ASM volatile ("mrs %0, primask" : "=r" (istat) );
 261:Generated_Source\PSoC5/ErikaOS_1_cortex_mx_ee_cpu.inc **** 	__ASM volatile ("cpsid i");
 262:Generated_Source\PSoC5/ErikaOS_1_cortex_mx_ee_cpu.inc **** #endif	/* !__KEIL__ */
 263:Generated_Source\PSoC5/ErikaOS_1_cortex_mx_ee_cpu.inc **** #endif	/* !__CCS__ */
 264:Generated_Source\PSoC5/ErikaOS_1_cortex_mx_ee_cpu.inc **** #endif	/* !__IAR__ */
 265:Generated_Source\PSoC5/ErikaOS_1_cortex_mx_ee_cpu.inc **** #ifdef __CCS__
 266:Generated_Source\PSoC5/ErikaOS_1_cortex_mx_ee_cpu.inc **** 	return 0;
 267:Generated_Source\PSoC5/ErikaOS_1_cortex_mx_ee_cpu.inc **** #else
 268:Generated_Source\PSoC5/ErikaOS_1_cortex_mx_ee_cpu.inc **** 	return istat;
 269:Generated_Source\PSoC5/ErikaOS_1_cortex_mx_ee_cpu.inc **** #endif
 270:Generated_Source\PSoC5/ErikaOS_1_cortex_mx_ee_cpu.inc **** }
 271:Generated_Source\PSoC5/ErikaOS_1_cortex_mx_ee_cpu.inc **** 
 272:Generated_Source\PSoC5/ErikaOS_1_cortex_mx_ee_cpu.inc **** /**
 273:Generated_Source\PSoC5/ErikaOS_1_cortex_mx_ee_cpu.inc ****  * Return true (not 0) if IRQs are enabled, 0 (false) if IRQ are disabled.
 274:Generated_Source\PSoC5/ErikaOS_1_cortex_mx_ee_cpu.inc ****  */
 275:Generated_Source\PSoC5/ErikaOS_1_cortex_mx_ee_cpu.inc **** __INLINE__ EE_UINT32  EE_cortex_mx_get_IRQ_enabled(void)
 276:Generated_Source\PSoC5/ErikaOS_1_cortex_mx_ee_cpu.inc **** {
 277:Generated_Source\PSoC5/ErikaOS_1_cortex_mx_ee_cpu.inc **** #ifndef __CCS__
 278:Generated_Source\PSoC5/ErikaOS_1_cortex_mx_ee_cpu.inc **** 	EE_UREG ie;
 279:Generated_Source\PSoC5/ErikaOS_1_cortex_mx_ee_cpu.inc **** #endif
 280:Generated_Source\PSoC5/ErikaOS_1_cortex_mx_ee_cpu.inc **** #ifdef __IAR__
 281:Generated_Source\PSoC5/ErikaOS_1_cortex_mx_ee_cpu.inc **** 	ie = __get_PRIMASK();
 282:Generated_Source\PSoC5/ErikaOS_1_cortex_mx_ee_cpu.inc **** #else	/* __IAR__ */
 283:Generated_Source\PSoC5/ErikaOS_1_cortex_mx_ee_cpu.inc **** #ifdef __CCS__
 284:Generated_Source\PSoC5/ErikaOS_1_cortex_mx_ee_cpu.inc **** 	__ASM ("    MRS     r0, PRIMASK\n"
 285:Generated_Source\PSoC5/ErikaOS_1_cortex_mx_ee_cpu.inc **** 	       "    EOR     r0, #1\n"
 286:Generated_Source\PSoC5/ErikaOS_1_cortex_mx_ee_cpu.inc **** 	       "    bx      lr\n");
 287:Generated_Source\PSoC5/ErikaOS_1_cortex_mx_ee_cpu.inc **** #else	/* __CCS__ */
 288:Generated_Source\PSoC5/ErikaOS_1_cortex_mx_ee_cpu.inc **** #ifdef __KEIL__
 289:Generated_Source\PSoC5/ErikaOS_1_cortex_mx_ee_cpu.inc **** 	register EE_FREG PRIMASK __ASM("primask");
 290:Generated_Source\PSoC5/ErikaOS_1_cortex_mx_ee_cpu.inc **** 	ie = PRIMASK;
 291:Generated_Source\PSoC5/ErikaOS_1_cortex_mx_ee_cpu.inc **** #else	/* __KEIL__ */
ARM GAS  C:\Users\mau_g\AppData\Local\Temp\cc9UAEog.s 			page 8


 292:Generated_Source\PSoC5/ErikaOS_1_cortex_mx_ee_cpu.inc **** 	__ASM volatile ("MRS %0, primask" : "=r" (ie) );
 293:Generated_Source\PSoC5/ErikaOS_1_cortex_mx_ee_cpu.inc **** #endif	/* !__KEIL__ */
 294:Generated_Source\PSoC5/ErikaOS_1_cortex_mx_ee_cpu.inc **** #endif	/* !__CCS__ */
 295:Generated_Source\PSoC5/ErikaOS_1_cortex_mx_ee_cpu.inc **** #endif	/* !__IAR__ */
 296:Generated_Source\PSoC5/ErikaOS_1_cortex_mx_ee_cpu.inc **** #ifdef __CCS__
 297:Generated_Source\PSoC5/ErikaOS_1_cortex_mx_ee_cpu.inc **** 	return 0;
 298:Generated_Source\PSoC5/ErikaOS_1_cortex_mx_ee_cpu.inc **** #else
 299:Generated_Source\PSoC5/ErikaOS_1_cortex_mx_ee_cpu.inc **** 	return EE_cortex_mx_are_IRQs_enabled(ie);
 300:Generated_Source\PSoC5/ErikaOS_1_cortex_mx_ee_cpu.inc **** #endif
 301:Generated_Source\PSoC5/ErikaOS_1_cortex_mx_ee_cpu.inc **** }
 302:Generated_Source\PSoC5/ErikaOS_1_cortex_mx_ee_cpu.inc **** 
 303:Generated_Source\PSoC5/ErikaOS_1_cortex_mx_ee_cpu.inc **** __INLINE__ EE_TYPEISR2PRIO  EE_cortex_mx_get_int_prio(void)
 304:Generated_Source\PSoC5/ErikaOS_1_cortex_mx_ee_cpu.inc **** {
 305:Generated_Source\PSoC5/ErikaOS_1_cortex_mx_ee_cpu.inc **** #ifdef __CORTEX_M4__
 306:Generated_Source\PSoC5/ErikaOS_1_cortex_mx_ee_cpu.inc **** 
 307:Generated_Source\PSoC5/ErikaOS_1_cortex_mx_ee_cpu.inc **** #ifndef __CCS__
 308:Generated_Source\PSoC5/ErikaOS_1_cortex_mx_ee_cpu.inc **** 	register EE_UREG prio;
 309:Generated_Source\PSoC5/ErikaOS_1_cortex_mx_ee_cpu.inc **** #ifdef	__KEIL__
 310:Generated_Source\PSoC5/ErikaOS_1_cortex_mx_ee_cpu.inc **** 	register EE_FREG BASEPRI __ASM("basepri");
 311:Generated_Source\PSoC5/ErikaOS_1_cortex_mx_ee_cpu.inc **** #endif
 312:Generated_Source\PSoC5/ErikaOS_1_cortex_mx_ee_cpu.inc **** 
 313:Generated_Source\PSoC5/ErikaOS_1_cortex_mx_ee_cpu.inc **** #endif
 314:Generated_Source\PSoC5/ErikaOS_1_cortex_mx_ee_cpu.inc **** 
 315:Generated_Source\PSoC5/ErikaOS_1_cortex_mx_ee_cpu.inc **** #ifdef __CCS__
 316:Generated_Source\PSoC5/ErikaOS_1_cortex_mx_ee_cpu.inc **** 	/* NVIC_INT_PRI_S = 5 */
 317:Generated_Source\PSoC5/ErikaOS_1_cortex_mx_ee_cpu.inc **** 	__ASM ("    MRS     R0, BASEPRI\n"
 318:Generated_Source\PSoC5/ErikaOS_1_cortex_mx_ee_cpu.inc **** 	       "    ASR     R0, #5\n"
 319:Generated_Source\PSoC5/ErikaOS_1_cortex_mx_ee_cpu.inc **** 	       "    BLX     LR\n");
 320:Generated_Source\PSoC5/ErikaOS_1_cortex_mx_ee_cpu.inc **** #else	/* __CCS__ */
 321:Generated_Source\PSoC5/ErikaOS_1_cortex_mx_ee_cpu.inc **** #ifdef __KEIL__
 322:Generated_Source\PSoC5/ErikaOS_1_cortex_mx_ee_cpu.inc **** 	prio = BASEPRI;
 323:Generated_Source\PSoC5/ErikaOS_1_cortex_mx_ee_cpu.inc **** #else	/* __KEIL__ */
 324:Generated_Source\PSoC5/ErikaOS_1_cortex_mx_ee_cpu.inc **** #ifdef __GNU__
 325:Generated_Source\PSoC5/ErikaOS_1_cortex_mx_ee_cpu.inc **** 	__ASM volatile("MRS %0, BASEPRI" : "=r" (prio) :: );
  82              		.loc 2 325 0
  83              		.syntax unified
  84              	@ 325 "Generated_Source\PSoC5/ErikaOS_1_cortex_mx_ee_cpu.inc" 1
  85 000c EFF31184 		MRS r4, BASEPRI
  86              	@ 0 "" 2
  87              	.LVL2:
  88              		.thumb
  89              		.syntax unified
  90              	.LBE65:
  91              	.LBE64:
  92              	.LBB66:
  93              	.LBB67:
 326:Generated_Source\PSoC5/ErikaOS_1_cortex_mx_ee_cpu.inc **** #else
 327:Generated_Source\PSoC5/ErikaOS_1_cortex_mx_ee_cpu.inc **** 	__ASM volatile("MRS %0, BASEPRI" :: "=r" (prio));
 328:Generated_Source\PSoC5/ErikaOS_1_cortex_mx_ee_cpu.inc **** #endif	/* !__GNU__ */
 329:Generated_Source\PSoC5/ErikaOS_1_cortex_mx_ee_cpu.inc **** #endif	/* !__KEIL__ */
 330:Generated_Source\PSoC5/ErikaOS_1_cortex_mx_ee_cpu.inc **** #endif	/* !__CCS__ */
 331:Generated_Source\PSoC5/ErikaOS_1_cortex_mx_ee_cpu.inc **** 
 332:Generated_Source\PSoC5/ErikaOS_1_cortex_mx_ee_cpu.inc **** #ifdef __CCS__
 333:Generated_Source\PSoC5/ErikaOS_1_cortex_mx_ee_cpu.inc **** 	return 0;
 334:Generated_Source\PSoC5/ErikaOS_1_cortex_mx_ee_cpu.inc **** #else
 335:Generated_Source\PSoC5/ErikaOS_1_cortex_mx_ee_cpu.inc **** 	return prio >> NVIC_INT_PRI_S;
 336:Generated_Source\PSoC5/ErikaOS_1_cortex_mx_ee_cpu.inc **** #endif
ARM GAS  C:\Users\mau_g\AppData\Local\Temp\cc9UAEog.s 			page 9


 337:Generated_Source\PSoC5/ErikaOS_1_cortex_mx_ee_cpu.inc **** 
 338:Generated_Source\PSoC5/ErikaOS_1_cortex_mx_ee_cpu.inc **** #else	/* __CORTEX_M4__ */
 339:Generated_Source\PSoC5/ErikaOS_1_cortex_mx_ee_cpu.inc **** 	return 0;
 340:Generated_Source\PSoC5/ErikaOS_1_cortex_mx_ee_cpu.inc **** #endif	/* !__CORTEX_M4__ */
 341:Generated_Source\PSoC5/ErikaOS_1_cortex_mx_ee_cpu.inc **** }
 342:Generated_Source\PSoC5/ErikaOS_1_cortex_mx_ee_cpu.inc **** 
 343:Generated_Source\PSoC5/ErikaOS_1_cortex_mx_ee_cpu.inc **** __INLINE__ void  EE_cortex_mx_set_int_prio(
 344:Generated_Source\PSoC5/ErikaOS_1_cortex_mx_ee_cpu.inc ****   EE_TYPEISR2PRIO prio
 345:Generated_Source\PSoC5/ErikaOS_1_cortex_mx_ee_cpu.inc **** )
 346:Generated_Source\PSoC5/ErikaOS_1_cortex_mx_ee_cpu.inc **** {
 347:Generated_Source\PSoC5/ErikaOS_1_cortex_mx_ee_cpu.inc **** #ifdef __CORTEX_M4__
 348:Generated_Source\PSoC5/ErikaOS_1_cortex_mx_ee_cpu.inc **** #ifdef __CCS__
 349:Generated_Source\PSoC5/ErikaOS_1_cortex_mx_ee_cpu.inc **** 	/* NVIC_INT_PRI_S = 5 */
 350:Generated_Source\PSoC5/ErikaOS_1_cortex_mx_ee_cpu.inc **** 	__ASM ("    LSL    R0, #5\n"
 351:Generated_Source\PSoC5/ErikaOS_1_cortex_mx_ee_cpu.inc **** 	       "    MSR    BASEPRI, R0\n");
 352:Generated_Source\PSoC5/ErikaOS_1_cortex_mx_ee_cpu.inc **** #else	/* __CCS__ */
 353:Generated_Source\PSoC5/ErikaOS_1_cortex_mx_ee_cpu.inc **** #ifdef __KEIL__
 354:Generated_Source\PSoC5/ErikaOS_1_cortex_mx_ee_cpu.inc **** 	register EE_FREG BASEPRI __ASM("basepri");
 355:Generated_Source\PSoC5/ErikaOS_1_cortex_mx_ee_cpu.inc **** 	BASEPRI = (prio << NVIC_INT_PRI_S);
 356:Generated_Source\PSoC5/ErikaOS_1_cortex_mx_ee_cpu.inc **** #else	/* __KEIL__ */
 357:Generated_Source\PSoC5/ErikaOS_1_cortex_mx_ee_cpu.inc **** #ifdef __GNU__
 358:Generated_Source\PSoC5/ErikaOS_1_cortex_mx_ee_cpu.inc **** 	__ASM volatile("MSR BASEPRI, %0" :: "r" (prio << NVIC_INT_PRI_S) : );
 359:Generated_Source\PSoC5/ErikaOS_1_cortex_mx_ee_cpu.inc **** #else
 360:Generated_Source\PSoC5/ErikaOS_1_cortex_mx_ee_cpu.inc **** 	__ASM volatile("MSR BASEPRI, %0" :: "r" (prio << NVIC_INT_PRI_S));
 361:Generated_Source\PSoC5/ErikaOS_1_cortex_mx_ee_cpu.inc **** #endif	/* !__GNU__ */
 362:Generated_Source\PSoC5/ErikaOS_1_cortex_mx_ee_cpu.inc **** #endif	/* !__KEIL__ */
 363:Generated_Source\PSoC5/ErikaOS_1_cortex_mx_ee_cpu.inc **** #endif	/* !__CCS__ */
 364:Generated_Source\PSoC5/ErikaOS_1_cortex_mx_ee_cpu.inc **** #endif	/* __CORTEX_M4__ */
 365:Generated_Source\PSoC5/ErikaOS_1_cortex_mx_ee_cpu.inc **** }
 366:Generated_Source\PSoC5/ErikaOS_1_cortex_mx_ee_cpu.inc **** 
 367:Generated_Source\PSoC5/ErikaOS_1_cortex_mx_ee_cpu.inc **** __INLINE__ EE_TYPEISR2PRIO  EE_cortex_mx_get_isr_prio(
 368:Generated_Source\PSoC5/ErikaOS_1_cortex_mx_ee_cpu.inc ****   void
 369:Generated_Source\PSoC5/ErikaOS_1_cortex_mx_ee_cpu.inc **** )
 370:Generated_Source\PSoC5/ErikaOS_1_cortex_mx_ee_cpu.inc **** {
 371:Generated_Source\PSoC5/ErikaOS_1_cortex_mx_ee_cpu.inc **** #ifdef __CORTEX_M4__
 372:Generated_Source\PSoC5/ErikaOS_1_cortex_mx_ee_cpu.inc ****   register EE_UREG vectact = NVIC_INT_CTRL_R & NVIC_INT_CTRL_VEC_ACT_M;
  94              		.loc 2 372 0
  95 0010 1E4B     		ldr	r3, .L9
  96 0012 1B68     		ldr	r3, [r3]
  97 0014 DBB2     		uxtb	r3, r3
  98              	.LVL3:
 373:Generated_Source\PSoC5/ErikaOS_1_cortex_mx_ee_cpu.inc ****   register EE_TYPEISR2PRIO prio = 0;
 374:Generated_Source\PSoC5/ErikaOS_1_cortex_mx_ee_cpu.inc **** 
 375:Generated_Source\PSoC5/ErikaOS_1_cortex_mx_ee_cpu.inc ****   if (vectact > EE_CORTEX_MX_SYSTICK_EXC_NUM) {
  99              		.loc 2 375 0
 100 0016 0F2B     		cmp	r3, #15
 101 0018 10D9     		bls	.L4
 376:Generated_Source\PSoC5/ErikaOS_1_cortex_mx_ee_cpu.inc ****     vectact -= EE_CORTEX_MX_SYSTICK_EXC_NUM + 1;
 102              		.loc 2 376 0
 103 001a 103B     		subs	r3, r3, #16
 104              	.LVL4:
 377:Generated_Source\PSoC5/ErikaOS_1_cortex_mx_ee_cpu.inc ****     prio = NVIC_GET_PRI(vectact);
 105              		.loc 2 377 0
 106 001c 23F00302 		bic	r2, r3, #3
 107 0020 02F16042 		add	r2, r2, #-536870912
 108 0024 02F56442 		add	r2, r2, #58368
 109 0028 1168     		ldr	r1, [r2]
ARM GAS  C:\Users\mau_g\AppData\Local\Temp\cc9UAEog.s 			page 10


 110 002a DB00     		lsls	r3, r3, #3
 111              	.LVL5:
 112 002c 03F01803 		and	r3, r3, #24
 113 0030 E022     		movs	r2, #224
 114 0032 9A40     		lsls	r2, r2, r3
 115 0034 0A40     		ands	r2, r2, r1
 116 0036 22FA03F3 		lsr	r3, r2, r3
 117              	.LVL6:
 118 003a 06E0     		b	.L5
 119              	.LVL7:
 120              	.L4:
 378:Generated_Source\PSoC5/ErikaOS_1_cortex_mx_ee_cpu.inc ****   }
 379:Generated_Source\PSoC5/ErikaOS_1_cortex_mx_ee_cpu.inc **** #ifdef	__USE_SYSTICK__
 380:Generated_Source\PSoC5/ErikaOS_1_cortex_mx_ee_cpu.inc ****   else if (vectact == EE_CORTEX_MX_SYSTICK_EXC_NUM) {
 121              		.loc 2 380 0
 122 003c 0F2B     		cmp	r3, #15
 123 003e 03D1     		bne	.L8
 381:Generated_Source\PSoC5/ErikaOS_1_cortex_mx_ee_cpu.inc ****     prio = NVIC_SYS_PRI3_R >> NVIC_SYS_PRI3_TICK_S;
 124              		.loc 2 381 0
 125 0040 134B     		ldr	r3, .L9+4
 126              	.LVL8:
 127 0042 1B68     		ldr	r3, [r3]
 128 0044 1B0E     		lsrs	r3, r3, #24
 129              	.LVL9:
 130 0046 00E0     		b	.L5
 131              	.LVL10:
 132              	.L8:
 373:Generated_Source\PSoC5/ErikaOS_1_cortex_mx_ee_cpu.inc **** 
 133              		.loc 2 373 0
 134 0048 0023     		movs	r3, #0
 135              	.LVL11:
 136              	.L5:
 137              	.LBE67:
 138              	.LBE66:
 139              	.LBB68:
 140              	.LBB69:
 358:Generated_Source\PSoC5/ErikaOS_1_cortex_mx_ee_cpu.inc **** #else
 141              		.loc 2 358 0
 142              		.syntax unified
 143              	@ 358 "Generated_Source\PSoC5/ErikaOS_1_cortex_mx_ee_cpu.inc" 1
 144 004a 83F31188 		MSR BASEPRI, r3
 145              	@ 0 "" 2
 146              		.thumb
 147              		.syntax unified
 148              	.LBE69:
 149              	.LBE68:
 150              	.LBB70:
 151              	.LBB71:
 152              		.file 3 "Generated_Source\\PSoC5/ErikaOS_1_common_ee_irqstub.inc"
   1:Generated_Source\PSoC5/ErikaOS_1_common_ee_irqstub.inc **** /* ###*B*###
   2:Generated_Source\PSoC5/ErikaOS_1_common_ee_irqstub.inc ****  * ERIKA Enterprise - a tiny RTOS for small microcontrollers
   3:Generated_Source\PSoC5/ErikaOS_1_common_ee_irqstub.inc ****  *
   4:Generated_Source\PSoC5/ErikaOS_1_common_ee_irqstub.inc ****  * Copyright (C) 2002-2010  Evidence Srl
   5:Generated_Source\PSoC5/ErikaOS_1_common_ee_irqstub.inc ****  *
   6:Generated_Source\PSoC5/ErikaOS_1_common_ee_irqstub.inc ****  * This file is part of ERIKA Enterprise.
   7:Generated_Source\PSoC5/ErikaOS_1_common_ee_irqstub.inc ****  *
   8:Generated_Source\PSoC5/ErikaOS_1_common_ee_irqstub.inc ****  * ERIKA Enterprise is free software; you can redistribute it
ARM GAS  C:\Users\mau_g\AppData\Local\Temp\cc9UAEog.s 			page 11


   9:Generated_Source\PSoC5/ErikaOS_1_common_ee_irqstub.inc ****  * and/or modify it under the terms of the GNU General Public License
  10:Generated_Source\PSoC5/ErikaOS_1_common_ee_irqstub.inc ****  * version 2 as published by the Free Software Foundation,
  11:Generated_Source\PSoC5/ErikaOS_1_common_ee_irqstub.inc ****  * (with a special exception described below).
  12:Generated_Source\PSoC5/ErikaOS_1_common_ee_irqstub.inc ****  *
  13:Generated_Source\PSoC5/ErikaOS_1_common_ee_irqstub.inc ****  * Linking this code statically or dynamically with other modules is
  14:Generated_Source\PSoC5/ErikaOS_1_common_ee_irqstub.inc ****  * making a combined work based on this code.  Thus, the terms and
  15:Generated_Source\PSoC5/ErikaOS_1_common_ee_irqstub.inc ****  * conditions of the GNU General Public License cover the whole
  16:Generated_Source\PSoC5/ErikaOS_1_common_ee_irqstub.inc ****  * combination.
  17:Generated_Source\PSoC5/ErikaOS_1_common_ee_irqstub.inc ****  *
  18:Generated_Source\PSoC5/ErikaOS_1_common_ee_irqstub.inc ****  * As a special exception, the copyright holders of this library give you
  19:Generated_Source\PSoC5/ErikaOS_1_common_ee_irqstub.inc ****  * permission to link this code with independent modules to produce an
  20:Generated_Source\PSoC5/ErikaOS_1_common_ee_irqstub.inc ****  * executable, regardless of the license terms of these independent
  21:Generated_Source\PSoC5/ErikaOS_1_common_ee_irqstub.inc ****  * modules, and to copy and distribute the resulting executable under
  22:Generated_Source\PSoC5/ErikaOS_1_common_ee_irqstub.inc ****  * terms of your choice, provided that you also meet, for each linked
  23:Generated_Source\PSoC5/ErikaOS_1_common_ee_irqstub.inc ****  * independent module, the terms and conditions of the license of that
  24:Generated_Source\PSoC5/ErikaOS_1_common_ee_irqstub.inc ****  * module.  An independent module is a module which is not derived from
  25:Generated_Source\PSoC5/ErikaOS_1_common_ee_irqstub.inc ****  * or based on this library.  If you modify this code, you may extend
  26:Generated_Source\PSoC5/ErikaOS_1_common_ee_irqstub.inc ****  * this exception to your version of the code, but you are not
  27:Generated_Source\PSoC5/ErikaOS_1_common_ee_irqstub.inc ****  * obligated to do so.  If you do not wish to do so, delete this
  28:Generated_Source\PSoC5/ErikaOS_1_common_ee_irqstub.inc ****  * exception statement from your version.
  29:Generated_Source\PSoC5/ErikaOS_1_common_ee_irqstub.inc ****  *
  30:Generated_Source\PSoC5/ErikaOS_1_common_ee_irqstub.inc ****  * ERIKA Enterprise is distributed in the hope that it will be
  31:Generated_Source\PSoC5/ErikaOS_1_common_ee_irqstub.inc ****  * useful, but WITHOUT ANY WARRANTY; without even the implied warranty
  32:Generated_Source\PSoC5/ErikaOS_1_common_ee_irqstub.inc ****  * of MERCHANTABILITY or FITNESS FOR A PARTICULAR PURPOSE.  See the
  33:Generated_Source\PSoC5/ErikaOS_1_common_ee_irqstub.inc ****  * GNU General Public License version 2 for more details.
  34:Generated_Source\PSoC5/ErikaOS_1_common_ee_irqstub.inc ****  *
  35:Generated_Source\PSoC5/ErikaOS_1_common_ee_irqstub.inc ****  * You should have received a copy of the GNU General Public License
  36:Generated_Source\PSoC5/ErikaOS_1_common_ee_irqstub.inc ****  * version 2 along with ERIKA Enterprise; if not, write to the
  37:Generated_Source\PSoC5/ErikaOS_1_common_ee_irqstub.inc ****  * Free Software Foundation, Inc., 51 Franklin Street, Fifth Floor,
  38:Generated_Source\PSoC5/ErikaOS_1_common_ee_irqstub.inc ****  * Boston, MA 02110-1301 USA.
  39:Generated_Source\PSoC5/ErikaOS_1_common_ee_irqstub.inc ****  * ###*E*### */
  40:Generated_Source\PSoC5/ErikaOS_1_common_ee_irqstub.inc **** 
  41:Generated_Source\PSoC5/ErikaOS_1_common_ee_irqstub.inc **** /*
  42:Generated_Source\PSoC5/ErikaOS_1_common_ee_irqstub.inc ****  * Some IRQ-related stuff.
  43:Generated_Source\PSoC5/ErikaOS_1_common_ee_irqstub.inc ****  * Author: 2009-2010,  Bernardo  Dal Seno
  44:Generated_Source\PSoC5/ErikaOS_1_common_ee_irqstub.inc ****  */
  45:Generated_Source\PSoC5/ErikaOS_1_common_ee_irqstub.inc **** 
  46:Generated_Source\PSoC5/ErikaOS_1_common_ee_irqstub.inc **** /*
  47:Generated_Source\PSoC5/ErikaOS_1_common_ee_irqstub.inc ****  * PSoC Port and API Generation
  48:Generated_Source\PSoC5/ErikaOS_1_common_ee_irqstub.inc ****  * Carlos Fernando Meier Martinez
  49:Generated_Source\PSoC5/ErikaOS_1_common_ee_irqstub.inc ****  * Hochschule Darmstadt, Germany. 2017.
  50:Generated_Source\PSoC5/ErikaOS_1_common_ee_irqstub.inc ****  */
  51:Generated_Source\PSoC5/ErikaOS_1_common_ee_irqstub.inc **** 
  52:Generated_Source\PSoC5/ErikaOS_1_common_ee_irqstub.inc **** /*******************************************************************************
  53:Generated_Source\PSoC5/ErikaOS_1_common_ee_irqstub.inc ****  *                        !!!WARNING!!!
  54:Generated_Source\PSoC5/ErikaOS_1_common_ee_irqstub.inc ****  * This header depends on "cpu/common/inc/ee_context.inc" or your own
  55:Generated_Source\PSoC5/ErikaOS_1_common_ee_irqstub.inc ****  * implementation of the same. You should include it file before including this
  56:Generated_Source\PSoC5/ErikaOS_1_common_ee_irqstub.inc ****  * file
  57:Generated_Source\PSoC5/ErikaOS_1_common_ee_irqstub.inc ****  ******************************************************************************/
  58:Generated_Source\PSoC5/ErikaOS_1_common_ee_irqstub.inc **** 
  59:Generated_Source\PSoC5/ErikaOS_1_common_ee_irqstub.inc **** #ifndef PKG_CPU_COMMON_INC_EE_IRQSTUB_H
  60:Generated_Source\PSoC5/ErikaOS_1_common_ee_irqstub.inc **** #define PKG_CPU_COMMON_INC_EE_IRQSTUB_H
  61:Generated_Source\PSoC5/ErikaOS_1_common_ee_irqstub.inc **** 
  62:Generated_Source\PSoC5/ErikaOS_1_common_ee_irqstub.inc **** /* this bring EE_IRQ_nesting_level definition */
  63:Generated_Source\PSoC5/ErikaOS_1_common_ee_irqstub.inc **** #include "ErikaOS_1_common_ee_primitives.inc"
  64:Generated_Source\PSoC5/ErikaOS_1_common_ee_irqstub.inc **** 
  65:Generated_Source\PSoC5/ErikaOS_1_common_ee_irqstub.inc **** /* True if we are inside an interrupt-serving routine */
ARM GAS  C:\Users\mau_g\AppData\Local\Temp\cc9UAEog.s 			page 12


  66:Generated_Source\PSoC5/ErikaOS_1_common_ee_irqstub.inc **** __INLINE__ EE_TYPEBOOL  EE_is_inside_ISR_call( void )
  67:Generated_Source\PSoC5/ErikaOS_1_common_ee_irqstub.inc **** {
  68:Generated_Source\PSoC5/ErikaOS_1_common_ee_irqstub.inc ****   return (EE_IRQ_nesting_level > 0U);
  69:Generated_Source\PSoC5/ErikaOS_1_common_ee_irqstub.inc **** }
  70:Generated_Source\PSoC5/ErikaOS_1_common_ee_irqstub.inc **** 
  71:Generated_Source\PSoC5/ErikaOS_1_common_ee_irqstub.inc **** 
  72:Generated_Source\PSoC5/ErikaOS_1_common_ee_irqstub.inc **** /* EE_decrement_IRQ_nesting_level() and EE_increment_IRQ_nesting_level() are
  73:Generated_Source\PSoC5/ErikaOS_1_common_ee_irqstub.inc ****  * used to keep track of the current IRQ nesting level.
  74:Generated_Source\PSoC5/ErikaOS_1_common_ee_irqstub.inc ****  * EE_std_enableIRQ_nested() and EE_std_disableIRQ_nested() are used to control
  75:Generated_Source\PSoC5/ErikaOS_1_common_ee_irqstub.inc ****  * when IRQ nesting is enabled.
  76:Generated_Source\PSoC5/ErikaOS_1_common_ee_irqstub.inc ****  */
  77:Generated_Source\PSoC5/ErikaOS_1_common_ee_irqstub.inc **** #if defined(__AS_SC4__)
  78:Generated_Source\PSoC5/ErikaOS_1_common_ee_irqstub.inc **** /* For SC4 the nesting level is updated inside the prestub and postub */
  79:Generated_Source\PSoC5/ErikaOS_1_common_ee_irqstub.inc **** __INLINE__ void  EE_decrement_IRQ_nesting_level(void) {}
  80:Generated_Source\PSoC5/ErikaOS_1_common_ee_irqstub.inc **** __INLINE__ void  EE_increment_IRQ_nesting_level(void) {}
  81:Generated_Source\PSoC5/ErikaOS_1_common_ee_irqstub.inc **** __INLINE__ void  EE_std_enableIRQ_nested(void) {}
  82:Generated_Source\PSoC5/ErikaOS_1_common_ee_irqstub.inc **** __INLINE__ void  EE_std_disableIRQ_nested(void) {}
  83:Generated_Source\PSoC5/ErikaOS_1_common_ee_irqstub.inc **** #elif defined(__ALLOW_NESTED_IRQ__)
  84:Generated_Source\PSoC5/ErikaOS_1_common_ee_irqstub.inc **** __INLINE__ void  EE_decrement_IRQ_nesting_level(void) { --EE_IRQ_nesting_level; }
  85:Generated_Source\PSoC5/ErikaOS_1_common_ee_irqstub.inc **** __INLINE__ void  EE_increment_IRQ_nesting_level(void) { ++EE_IRQ_nesting_level; }
 153              		.loc 3 85 0
 154 004e 114A     		ldr	r2, .L9+8
 155 0050 1368     		ldr	r3, [r2]
 156 0052 0133     		adds	r3, r3, #1
 157 0054 1360     		str	r3, [r2]
 158              	.LBE71:
 159              	.LBE70:
  24:Source\asw/main.c **** {
 160              		.loc 1 24 0
 161 0056 012B     		cmp	r3, #1
 162 0058 01D1     		bne	.L6
  24:Source\asw/main.c **** {
 163              		.loc 1 24 0 is_stmt 0 discriminator 1
 164 005a FFF7FEFF 		bl	EE_cortex_mx_change_IRQ_stack
 165              	.LVL12:
 166              	.L6:
 167              	.LBB72:
 168              	.LBB73:
 191:Generated_Source\PSoC5/ErikaOS_1_cortex_mx_ee_cpu.inc **** #endif	/* !__KEIL__ */
 169              		.loc 2 191 0 is_stmt 1 discriminator 3
 170              		.syntax unified
 171              	@ 191 "Generated_Source\PSoC5/ErikaOS_1_cortex_mx_ee_cpu.inc" 1
 172 005e 62B6     		cpsie i
 173              	@ 0 "" 2
 174              		.thumb
 175              		.syntax unified
 176              	.LBE73:
 177              	.LBE72:
  24:Source\asw/main.c **** {
 178              		.loc 1 24 0 discriminator 3
 179 0060 FFF7FEFF 		bl	ISR2_systick_handler
 180              	.LVL13:
 181              	.LBB74:
 182              	.LBB75:
 211:Generated_Source\PSoC5/ErikaOS_1_cortex_mx_ee_cpu.inc **** #endif	/* !__KEIL__ */
 183              		.loc 2 211 0 discriminator 3
 184              		.syntax unified
ARM GAS  C:\Users\mau_g\AppData\Local\Temp\cc9UAEog.s 			page 13


 185              	@ 211 "Generated_Source\PSoC5/ErikaOS_1_cortex_mx_ee_cpu.inc" 1
 186 0064 72B6     		cpsid i
 187              	@ 0 "" 2
 188              	.LVL14:
 189              		.thumb
 190              		.syntax unified
 191              	.LBE75:
 192              	.LBE74:
 193              	.LBB76:
 194              	.LBB77:
 358:Generated_Source\PSoC5/ErikaOS_1_cortex_mx_ee_cpu.inc **** #else
 195              		.loc 2 358 0 discriminator 3
 196              		.syntax unified
 197              	@ 358 "Generated_Source\PSoC5/ErikaOS_1_cortex_mx_ee_cpu.inc" 1
 198 0066 84F31188 		MSR BASEPRI, r4
 199              	@ 0 "" 2
 200              	.LVL15:
 201              		.thumb
 202              		.syntax unified
 203              	.LBE77:
 204              	.LBE76:
 205              	.LBB78:
 206              	.LBB79:
  86:Generated_Source\PSoC5/ErikaOS_1_common_ee_irqstub.inc **** /*  EE_std_enableIRQ_nested() and EE_std_disableIRQ_nested() must be defined in
  87:Generated_Source\PSoC5/ErikaOS_1_common_ee_irqstub.inc ****  *  the platform-dependent part, as they dependend on the particular way
  88:Generated_Source\PSoC5/ErikaOS_1_common_ee_irqstub.inc ****  *  interrupts are handled by the CPU. */
  89:Generated_Source\PSoC5/ErikaOS_1_common_ee_irqstub.inc **** #else
  90:Generated_Source\PSoC5/ErikaOS_1_common_ee_irqstub.inc **** __INLINE__ void  EE_decrement_IRQ_nesting_level(void) { EE_IRQ_nesting_level = 0U; }
  91:Generated_Source\PSoC5/ErikaOS_1_common_ee_irqstub.inc **** __INLINE__ void  EE_increment_IRQ_nesting_level(void) { EE_IRQ_nesting_level = 1U; }
  92:Generated_Source\PSoC5/ErikaOS_1_common_ee_irqstub.inc **** __INLINE__ void  EE_std_enableIRQ_nested(void) {}
  93:Generated_Source\PSoC5/ErikaOS_1_common_ee_irqstub.inc **** __INLINE__ void  EE_std_disableIRQ_nested(void) {}
  94:Generated_Source\PSoC5/ErikaOS_1_common_ee_irqstub.inc **** #endif
  95:Generated_Source\PSoC5/ErikaOS_1_common_ee_irqstub.inc **** 
  96:Generated_Source\PSoC5/ErikaOS_1_common_ee_irqstub.inc **** #if (defined(__OO_BCC1__)) || (defined(__OO_BCC2__)) || (defined(__OO_ECC1__)) \
  97:Generated_Source\PSoC5/ErikaOS_1_common_ee_irqstub.inc ****   || (defined(__OO_ECC2__)) || (defined(__AS_SC4__))
  98:Generated_Source\PSoC5/ErikaOS_1_common_ee_irqstub.inc **** /* Function to be called at the end of a function service interrupt, to execute
  99:Generated_Source\PSoC5/ErikaOS_1_common_ee_irqstub.inc ****    clean-up specifiend in Autosar standard */
 100:Generated_Source\PSoC5/ErikaOS_1_common_ee_irqstub.inc **** __INLINE__ void  EE_std_end_IRQ_post_stub(void)
 101:Generated_Source\PSoC5/ErikaOS_1_common_ee_irqstub.inc **** {
 102:Generated_Source\PSoC5/ErikaOS_1_common_ee_irqstub.inc ****   EE_IRQ_end_post_stub();
 207              		.loc 3 102 0 discriminator 3
 208 006a FFF7FEFF 		bl	EE_IRQ_end_post_stub
 209              	.LVL16:
 210              	.LBE79:
 211              	.LBE78:
 212              	.LBB80:
 213              	.LBB81:
  84:Generated_Source\PSoC5/ErikaOS_1_common_ee_irqstub.inc **** __INLINE__ void  EE_increment_IRQ_nesting_level(void) { ++EE_IRQ_nesting_level; }
 214              		.loc 3 84 0 discriminator 3
 215 006e 094A     		ldr	r2, .L9+8
 216 0070 1368     		ldr	r3, [r2]
 217 0072 013B     		subs	r3, r3, #1
 218 0074 1360     		str	r3, [r2]
 219              	.LBE81:
 220              	.LBE80:
  24:Source\asw/main.c **** {
 221              		.loc 1 24 0 discriminator 3
ARM GAS  C:\Users\mau_g\AppData\Local\Temp\cc9UAEog.s 			page 14


 222 0076 1BB9     		cbnz	r3, .L7
  24:Source\asw/main.c **** {
 223              		.loc 1 24 0 is_stmt 0 discriminator 4
 224 0078 FFF7FEFF 		bl	EE_cortex_mx_change_IRQ_stack_back
 225              	.LVL17:
 226              	.LBB82:
 227              	.LBB83:
 228              		.file 4 "Generated_Source\\PSoC5/ErikaOS_1_cortex_mx_ee_irq_cng_cont.inc"
   1:Generated_Source\PSoC5/ErikaOS_1_cortex_mx_ee_irq_cng_cont.inc **** /* ###*B*###
   2:Generated_Source\PSoC5/ErikaOS_1_cortex_mx_ee_irq_cng_cont.inc ****  * ERIKA Enterprise - a tiny RTOS for small microcontrollers
   3:Generated_Source\PSoC5/ErikaOS_1_cortex_mx_ee_irq_cng_cont.inc ****  *
   4:Generated_Source\PSoC5/ErikaOS_1_cortex_mx_ee_irq_cng_cont.inc ****  * Copyright (C) 2002-2011  Evidence Srl
   5:Generated_Source\PSoC5/ErikaOS_1_cortex_mx_ee_irq_cng_cont.inc ****  *
   6:Generated_Source\PSoC5/ErikaOS_1_cortex_mx_ee_irq_cng_cont.inc ****  * This file is part of ERIKA Enterprise.
   7:Generated_Source\PSoC5/ErikaOS_1_cortex_mx_ee_irq_cng_cont.inc ****  *
   8:Generated_Source\PSoC5/ErikaOS_1_cortex_mx_ee_irq_cng_cont.inc ****  * ERIKA Enterprise is free software; you can redistribute it
   9:Generated_Source\PSoC5/ErikaOS_1_cortex_mx_ee_irq_cng_cont.inc ****  * and/or modify it under the terms of the GNU General Public License
  10:Generated_Source\PSoC5/ErikaOS_1_cortex_mx_ee_irq_cng_cont.inc ****  * version 2 as published by the Free Software Foundation, 
  11:Generated_Source\PSoC5/ErikaOS_1_cortex_mx_ee_irq_cng_cont.inc ****  * (with a special exception described below).
  12:Generated_Source\PSoC5/ErikaOS_1_cortex_mx_ee_irq_cng_cont.inc ****  *
  13:Generated_Source\PSoC5/ErikaOS_1_cortex_mx_ee_irq_cng_cont.inc ****  * Linking this code statically or dynamically with other modules is
  14:Generated_Source\PSoC5/ErikaOS_1_cortex_mx_ee_irq_cng_cont.inc ****  * making a combined work based on this code.  Thus, the terms and
  15:Generated_Source\PSoC5/ErikaOS_1_cortex_mx_ee_irq_cng_cont.inc ****  * conditions of the GNU General Public License cover the whole
  16:Generated_Source\PSoC5/ErikaOS_1_cortex_mx_ee_irq_cng_cont.inc ****  * combination.
  17:Generated_Source\PSoC5/ErikaOS_1_cortex_mx_ee_irq_cng_cont.inc ****  *
  18:Generated_Source\PSoC5/ErikaOS_1_cortex_mx_ee_irq_cng_cont.inc ****  * As a special exception, the copyright holders of this library give you
  19:Generated_Source\PSoC5/ErikaOS_1_cortex_mx_ee_irq_cng_cont.inc ****  * permission to link this code with independent modules to produce an
  20:Generated_Source\PSoC5/ErikaOS_1_cortex_mx_ee_irq_cng_cont.inc ****  * executable, regardless of the license terms of these independent
  21:Generated_Source\PSoC5/ErikaOS_1_cortex_mx_ee_irq_cng_cont.inc ****  * modules, and to copy and distribute the resulting executable under
  22:Generated_Source\PSoC5/ErikaOS_1_cortex_mx_ee_irq_cng_cont.inc ****  * terms of your choice, provided that you also meet, for each linked
  23:Generated_Source\PSoC5/ErikaOS_1_cortex_mx_ee_irq_cng_cont.inc ****  * independent module, the terms and conditions of the license of that
  24:Generated_Source\PSoC5/ErikaOS_1_cortex_mx_ee_irq_cng_cont.inc ****  * module.  An independent module is a module which is not derived from
  25:Generated_Source\PSoC5/ErikaOS_1_cortex_mx_ee_irq_cng_cont.inc ****  * or based on this library.  If you modify this code, you may extend
  26:Generated_Source\PSoC5/ErikaOS_1_cortex_mx_ee_irq_cng_cont.inc ****  * this exception to your version of the code, but you are not
  27:Generated_Source\PSoC5/ErikaOS_1_cortex_mx_ee_irq_cng_cont.inc ****  * obligated to do so.  If you do not wish to do so, delete this
  28:Generated_Source\PSoC5/ErikaOS_1_cortex_mx_ee_irq_cng_cont.inc ****  * exception statement from your version.
  29:Generated_Source\PSoC5/ErikaOS_1_cortex_mx_ee_irq_cng_cont.inc ****  *
  30:Generated_Source\PSoC5/ErikaOS_1_cortex_mx_ee_irq_cng_cont.inc ****  * ERIKA Enterprise is distributed in the hope that it will be
  31:Generated_Source\PSoC5/ErikaOS_1_cortex_mx_ee_irq_cng_cont.inc ****  * useful, but WITHOUT ANY WARRANTY; without even the implied warranty
  32:Generated_Source\PSoC5/ErikaOS_1_cortex_mx_ee_irq_cng_cont.inc ****  * of MERCHANTABILITY or FITNESS FOR A PARTICULAR PURPOSE.  See the
  33:Generated_Source\PSoC5/ErikaOS_1_cortex_mx_ee_irq_cng_cont.inc ****  * GNU General Public License version 2 for more details.
  34:Generated_Source\PSoC5/ErikaOS_1_cortex_mx_ee_irq_cng_cont.inc ****  *
  35:Generated_Source\PSoC5/ErikaOS_1_cortex_mx_ee_irq_cng_cont.inc ****  * You should have received a copy of the GNU General Public License
  36:Generated_Source\PSoC5/ErikaOS_1_cortex_mx_ee_irq_cng_cont.inc ****  * version 2 along with ERIKA Enterprise; if not, write to the
  37:Generated_Source\PSoC5/ErikaOS_1_cortex_mx_ee_irq_cng_cont.inc ****  * Free Software Foundation, Inc., 51 Franklin Street, Fifth Floor,
  38:Generated_Source\PSoC5/ErikaOS_1_cortex_mx_ee_irq_cng_cont.inc ****  * Boston, MA 02110-1301 USA.
  39:Generated_Source\PSoC5/ErikaOS_1_cortex_mx_ee_irq_cng_cont.inc ****  * ###*E*### */
  40:Generated_Source\PSoC5/ErikaOS_1_cortex_mx_ee_irq_cng_cont.inc **** 
  41:Generated_Source\PSoC5/ErikaOS_1_cortex_mx_ee_irq_cng_cont.inc ****  /** 
  42:Generated_Source\PSoC5/ErikaOS_1_cortex_mx_ee_irq_cng_cont.inc **** 	
  43:Generated_Source\PSoC5/ErikaOS_1_cortex_mx_ee_irq_cng_cont.inc **** 	@file	ee_irq_cng_cont.h
  44:Generated_Source\PSoC5/ErikaOS_1_cortex_mx_ee_irq_cng_cont.inc **** 	@brief	Function active the context change interrupt
  45:Generated_Source\PSoC5/ErikaOS_1_cortex_mx_ee_irq_cng_cont.inc **** 	@author	Gianluca Franchino
  46:Generated_Source\PSoC5/ErikaOS_1_cortex_mx_ee_irq_cng_cont.inc **** 	@author	Giuseppe Serano
  47:Generated_Source\PSoC5/ErikaOS_1_cortex_mx_ee_irq_cng_cont.inc **** 	@date	2012
  48:Generated_Source\PSoC5/ErikaOS_1_cortex_mx_ee_irq_cng_cont.inc **** */ 
  49:Generated_Source\PSoC5/ErikaOS_1_cortex_mx_ee_irq_cng_cont.inc ****     
ARM GAS  C:\Users\mau_g\AppData\Local\Temp\cc9UAEog.s 			page 15


  50:Generated_Source\PSoC5/ErikaOS_1_cortex_mx_ee_irq_cng_cont.inc **** /*
  51:Generated_Source\PSoC5/ErikaOS_1_cortex_mx_ee_irq_cng_cont.inc ****  * PSoC Port and API Generation
  52:Generated_Source\PSoC5/ErikaOS_1_cortex_mx_ee_irq_cng_cont.inc ****  * Carlos Fernando Meier Martinez
  53:Generated_Source\PSoC5/ErikaOS_1_cortex_mx_ee_irq_cng_cont.inc ****  * Hochschule Darmstadt, Germany. 2017.
  54:Generated_Source\PSoC5/ErikaOS_1_cortex_mx_ee_irq_cng_cont.inc ****  */
  55:Generated_Source\PSoC5/ErikaOS_1_cortex_mx_ee_irq_cng_cont.inc **** 
  56:Generated_Source\PSoC5/ErikaOS_1_cortex_mx_ee_irq_cng_cont.inc **** #ifndef __INCLUDE_CORTEX_MX_IRQ_CNG_CONTEXT_H__
  57:Generated_Source\PSoC5/ErikaOS_1_cortex_mx_ee_irq_cng_cont.inc **** #define __INCLUDE_CORTEX_MX_IRQ_CNG_CONTEXT_H__
  58:Generated_Source\PSoC5/ErikaOS_1_cortex_mx_ee_irq_cng_cont.inc **** 
  59:Generated_Source\PSoC5/ErikaOS_1_cortex_mx_ee_irq_cng_cont.inc **** #ifdef __GNU__
  60:Generated_Source\PSoC5/ErikaOS_1_cortex_mx_ee_irq_cng_cont.inc **** #include "ErikaOS_1_common_ee_compiler_gcc.inc"
  61:Generated_Source\PSoC5/ErikaOS_1_cortex_mx_ee_irq_cng_cont.inc **** #endif
  62:Generated_Source\PSoC5/ErikaOS_1_cortex_mx_ee_irq_cng_cont.inc **** 
  63:Generated_Source\PSoC5/ErikaOS_1_cortex_mx_ee_irq_cng_cont.inc **** /* Implemented in ee_<compiler>_change_context_isr.s */
  64:Generated_Source\PSoC5/ErikaOS_1_cortex_mx_ee_irq_cng_cont.inc **** extern void EE_switch_context(void);
  65:Generated_Source\PSoC5/ErikaOS_1_cortex_mx_ee_irq_cng_cont.inc **** 
  66:Generated_Source\PSoC5/ErikaOS_1_cortex_mx_ee_irq_cng_cont.inc **** __INLINE__ void  EE_cortex_mx_IRQ_active_change_context(void)
  67:Generated_Source\PSoC5/ErikaOS_1_cortex_mx_ee_irq_cng_cont.inc **** {
  68:Generated_Source\PSoC5/ErikaOS_1_cortex_mx_ee_irq_cng_cont.inc **** 	EE_switch_context();
 229              		.loc 4 68 0 is_stmt 1 discriminator 4
 230 007c FFF7FEFF 		bl	EE_switch_context
 231              	.LVL18:
 232              	.L7:
 233              	.LBE83:
 234              	.LBE82:
 235              	.LBB84:
 236              	.LBB85:
 191:Generated_Source\PSoC5/ErikaOS_1_cortex_mx_ee_cpu.inc **** #endif	/* !__KEIL__ */
 237              		.loc 2 191 0 discriminator 6
 238              		.syntax unified
 239              	@ 191 "Generated_Source\PSoC5/ErikaOS_1_cortex_mx_ee_cpu.inc" 1
 240 0080 62B6     		cpsie i
 241              	@ 0 "" 2
 242              		.thumb
 243              		.syntax unified
 244              	.LBE85:
 245              	.LBE84:
  24:Source\asw/main.c **** {
 246              		.loc 1 24 0 discriminator 6
 247 0082 BDE81940 		pop	{r0, r3, r4, lr}
 248              		.cfi_restore 14
 249              		.cfi_restore 4
 250              		.cfi_restore 3
 251              		.cfi_restore 0
 252              		.cfi_def_cfa_offset 0
 253 0086 8546     		mov	sp, r0
 254 0088 7047     		bx	lr
 255              	.L10:
 256 008a 00BF     		.align	2
 257              	.L9:
 258 008c 04ED00E0 		.word	-536810236
 259 0090 20ED00E0 		.word	-536810208
 260 0094 00000000 		.word	EE_IRQ_nesting_level
 261              		.cfi_endproc
 262              	.LFE141:
 263              		.size	systick_handler, .-systick_handler
 264              		.section	.text.main,"ax",%progbits
ARM GAS  C:\Users\mau_g\AppData\Local\Temp\cc9UAEog.s 			page 16


 265              		.align	2
 266              		.global	main
 267              		.thumb
 268              		.thumb_func
 269              		.type	main, %function
 270              	main:
 271              	.LFB143:
  27:Source\asw/main.c **** }
  28:Source\asw/main.c **** 
  29:Source\asw/main.c **** int main(void)
  30:Source\asw/main.c **** {
 272              		.loc 1 30 0
 273              		.cfi_startproc
 274              		@ Volatile: function does not return.
 275              		@ args = 0, pretend = 0, frame = 0
 276              		@ frame_needed = 0, uses_anonymous_args = 0
 277 0000 08B5     		push	{r3, lr}
 278              		.cfi_def_cfa_offset 8
 279              		.cfi_offset 3, -8
 280              		.cfi_offset 14, -4
  31:Source\asw/main.c ****     CyGlobalIntEnable; /* Enable global interrupts. */
 281              		.loc 1 31 0
 282              		.syntax unified
 283              	@ 31 "Source\asw\main.c" 1
 284 0002 62B6     		CPSIE   i
 285              	@ 0 "" 2
 286              	.LVL19:
 287              		.thumb
 288              		.syntax unified
 289              	.LBB86:
 290              	.LBB87:
 291              		.file 5 "Generated_Source\\PSoC5/ErikaOS_1_cortex_mx_ee_systick.inc"
   1:Generated_Source\PSoC5/ErikaOS_1_cortex_mx_ee_systick.inc **** /* ###*B*###
   2:Generated_Source\PSoC5/ErikaOS_1_cortex_mx_ee_systick.inc ****  * ERIKA Enterprise - a tiny RTOS for small microcontrollers
   3:Generated_Source\PSoC5/ErikaOS_1_cortex_mx_ee_systick.inc ****  *
   4:Generated_Source\PSoC5/ErikaOS_1_cortex_mx_ee_systick.inc ****  * Copyright (C) 2002-2012  Evidence Srl
   5:Generated_Source\PSoC5/ErikaOS_1_cortex_mx_ee_systick.inc ****  *
   6:Generated_Source\PSoC5/ErikaOS_1_cortex_mx_ee_systick.inc ****  * This file is part of ERIKA Enterprise.
   7:Generated_Source\PSoC5/ErikaOS_1_cortex_mx_ee_systick.inc ****  *
   8:Generated_Source\PSoC5/ErikaOS_1_cortex_mx_ee_systick.inc ****  * ERIKA Enterprise is free software; you can redistribute it
   9:Generated_Source\PSoC5/ErikaOS_1_cortex_mx_ee_systick.inc ****  * and/or modify it under the terms of the GNU General Public License
  10:Generated_Source\PSoC5/ErikaOS_1_cortex_mx_ee_systick.inc ****  * version 2 as published by the Free Software Foundation,
  11:Generated_Source\PSoC5/ErikaOS_1_cortex_mx_ee_systick.inc ****  * (with a special exception described below).
  12:Generated_Source\PSoC5/ErikaOS_1_cortex_mx_ee_systick.inc ****  *
  13:Generated_Source\PSoC5/ErikaOS_1_cortex_mx_ee_systick.inc ****  * Linking this code statically or dynamically with other modules is
  14:Generated_Source\PSoC5/ErikaOS_1_cortex_mx_ee_systick.inc ****  * making a combined work based on this code.  Thus, the terms and
  15:Generated_Source\PSoC5/ErikaOS_1_cortex_mx_ee_systick.inc ****  * conditions of the GNU General Public License cover the whole
  16:Generated_Source\PSoC5/ErikaOS_1_cortex_mx_ee_systick.inc ****  * combination.
  17:Generated_Source\PSoC5/ErikaOS_1_cortex_mx_ee_systick.inc ****  *
  18:Generated_Source\PSoC5/ErikaOS_1_cortex_mx_ee_systick.inc ****  * As a special exception, the copyright holders of this library give you
  19:Generated_Source\PSoC5/ErikaOS_1_cortex_mx_ee_systick.inc ****  * permission to link this code with independent modules to produce an
  20:Generated_Source\PSoC5/ErikaOS_1_cortex_mx_ee_systick.inc ****  * executable, regardless of the license terms of these independent
  21:Generated_Source\PSoC5/ErikaOS_1_cortex_mx_ee_systick.inc ****  * modules, and to copy and distribute the resulting executable under
  22:Generated_Source\PSoC5/ErikaOS_1_cortex_mx_ee_systick.inc ****  * terms of your choice, provided that you also meet, for each linked
  23:Generated_Source\PSoC5/ErikaOS_1_cortex_mx_ee_systick.inc ****  * independent module, the terms and conditions of the license of that
  24:Generated_Source\PSoC5/ErikaOS_1_cortex_mx_ee_systick.inc ****  * module.  An independent module is a module which is not derived from
  25:Generated_Source\PSoC5/ErikaOS_1_cortex_mx_ee_systick.inc ****  * or based on this library.  If you modify this code, you may extend
ARM GAS  C:\Users\mau_g\AppData\Local\Temp\cc9UAEog.s 			page 17


  26:Generated_Source\PSoC5/ErikaOS_1_cortex_mx_ee_systick.inc ****  * this exception to your version of the code, but you are not
  27:Generated_Source\PSoC5/ErikaOS_1_cortex_mx_ee_systick.inc ****  * obligated to do so.  If you do not wish to do so, delete this
  28:Generated_Source\PSoC5/ErikaOS_1_cortex_mx_ee_systick.inc ****  * exception statement from your version.
  29:Generated_Source\PSoC5/ErikaOS_1_cortex_mx_ee_systick.inc ****  *
  30:Generated_Source\PSoC5/ErikaOS_1_cortex_mx_ee_systick.inc ****  * ERIKA Enterprise is distributed in the hope that it will be
  31:Generated_Source\PSoC5/ErikaOS_1_cortex_mx_ee_systick.inc ****  * useful, but WITHOUT ANY WARRANTY; without even the implied warranty
  32:Generated_Source\PSoC5/ErikaOS_1_cortex_mx_ee_systick.inc ****  * of MERCHANTABILITY or FITNESS FOR A PARTICULAR PURPOSE.  See the
  33:Generated_Source\PSoC5/ErikaOS_1_cortex_mx_ee_systick.inc ****  * GNU General Public License version 2 for more details.
  34:Generated_Source\PSoC5/ErikaOS_1_cortex_mx_ee_systick.inc ****  *
  35:Generated_Source\PSoC5/ErikaOS_1_cortex_mx_ee_systick.inc ****  * You should have received a copy of the GNU General Public License
  36:Generated_Source\PSoC5/ErikaOS_1_cortex_mx_ee_systick.inc ****  * version 2 along with ERIKA Enterprise; if not, write to the
  37:Generated_Source\PSoC5/ErikaOS_1_cortex_mx_ee_systick.inc ****  * Free Software Foundation, Inc., 51 Franklin Street, Fifth Floor,
  38:Generated_Source\PSoC5/ErikaOS_1_cortex_mx_ee_systick.inc ****  * Boston, MA 02110-1301 USA.
  39:Generated_Source\PSoC5/ErikaOS_1_cortex_mx_ee_systick.inc ****  * ###*E*### */
  40:Generated_Source\PSoC5/ErikaOS_1_cortex_mx_ee_systick.inc **** 
  41:Generated_Source\PSoC5/ErikaOS_1_cortex_mx_ee_systick.inc **** /**
  42:Generated_Source\PSoC5/ErikaOS_1_cortex_mx_ee_systick.inc ****     @file	ee_systick.h
  43:Generated_Source\PSoC5/ErikaOS_1_cortex_mx_ee_systick.inc ****     @brief	SysTick system timer driver header file.
  44:Generated_Source\PSoC5/ErikaOS_1_cortex_mx_ee_systick.inc ****     @author	Giuseppe Serano
  45:Generated_Source\PSoC5/ErikaOS_1_cortex_mx_ee_systick.inc ****     @date	2012
  46:Generated_Source\PSoC5/ErikaOS_1_cortex_mx_ee_systick.inc **** 
  47:Generated_Source\PSoC5/ErikaOS_1_cortex_mx_ee_systick.inc **** **/
  48:Generated_Source\PSoC5/ErikaOS_1_cortex_mx_ee_systick.inc **** 
  49:Generated_Source\PSoC5/ErikaOS_1_cortex_mx_ee_systick.inc **** /*
  50:Generated_Source\PSoC5/ErikaOS_1_cortex_mx_ee_systick.inc ****  * PSoC Port and API Generation
  51:Generated_Source\PSoC5/ErikaOS_1_cortex_mx_ee_systick.inc ****  * Carlos Fernando Meier Martinez
  52:Generated_Source\PSoC5/ErikaOS_1_cortex_mx_ee_systick.inc ****  * Hochschule Darmstadt, Germany. 2017.
  53:Generated_Source\PSoC5/ErikaOS_1_cortex_mx_ee_systick.inc ****  */
  54:Generated_Source\PSoC5/ErikaOS_1_cortex_mx_ee_systick.inc **** 
  55:Generated_Source\PSoC5/ErikaOS_1_cortex_mx_ee_systick.inc **** #ifndef	__INCLUDE_CORTEX_MX_SYSTICK_H__
  56:Generated_Source\PSoC5/ErikaOS_1_cortex_mx_ee_systick.inc **** #define	__INCLUDE_CORTEX_MX_SYSTICK_H__
  57:Generated_Source\PSoC5/ErikaOS_1_cortex_mx_ee_systick.inc **** 
  58:Generated_Source\PSoC5/ErikaOS_1_cortex_mx_ee_systick.inc **** #ifdef	__USE_SYSTICK__
  59:Generated_Source\PSoC5/ErikaOS_1_cortex_mx_ee_systick.inc **** 
  60:Generated_Source\PSoC5/ErikaOS_1_cortex_mx_ee_systick.inc **** /** error value. No errors happened **/
  61:Generated_Source\PSoC5/ErikaOS_1_cortex_mx_ee_systick.inc **** #define	EE_SYSTICK_NO_ERRORS	0
  62:Generated_Source\PSoC5/ErikaOS_1_cortex_mx_ee_systick.inc **** /** error value. Wrong funtion arguments values **/
  63:Generated_Source\PSoC5/ErikaOS_1_cortex_mx_ee_systick.inc **** #define	EE_SYSTICK_ERR_BAD_ARGS	1
  64:Generated_Source\PSoC5/ErikaOS_1_cortex_mx_ee_systick.inc **** 
  65:Generated_Source\PSoC5/ErikaOS_1_cortex_mx_ee_systick.inc **** /**
  66:Generated_Source\PSoC5/ErikaOS_1_cortex_mx_ee_systick.inc ****     @brief Start SysTick.
  67:Generated_Source\PSoC5/ErikaOS_1_cortex_mx_ee_systick.inc **** 
  68:Generated_Source\PSoC5/ErikaOS_1_cortex_mx_ee_systick.inc ****     This will start the SysTick counter.  If an ISR has been defined, it is
  69:Generated_Source\PSoC5/ErikaOS_1_cortex_mx_ee_systick.inc ****     called when the SysTick counter rolls over.
  70:Generated_Source\PSoC5/ErikaOS_1_cortex_mx_ee_systick.inc **** 
  71:Generated_Source\PSoC5/ErikaOS_1_cortex_mx_ee_systick.inc ****     @note Calling this function will cause the SysTick counter to (re)commence
  72:Generated_Source\PSoC5/ErikaOS_1_cortex_mx_ee_systick.inc ****     counting from its current value.  The counter is not automatically reloaded
  73:Generated_Source\PSoC5/ErikaOS_1_cortex_mx_ee_systick.inc ****     with the period as specified in a previous call to EE_systick_set_period().
  74:Generated_Source\PSoC5/ErikaOS_1_cortex_mx_ee_systick.inc ****     If an immediate reload is required, the \b NVIC_ST_CURRENT register must be
  75:Generated_Source\PSoC5/ErikaOS_1_cortex_mx_ee_systick.inc ****     written to force this.  Any write to this register clears the SysTick
  76:Generated_Source\PSoC5/ErikaOS_1_cortex_mx_ee_systick.inc ****     counter to 0 and will cause a reload with the supplied period on the next
  77:Generated_Source\PSoC5/ErikaOS_1_cortex_mx_ee_systick.inc ****     clock.
  78:Generated_Source\PSoC5/ErikaOS_1_cortex_mx_ee_systick.inc ****  */
  79:Generated_Source\PSoC5/ErikaOS_1_cortex_mx_ee_systick.inc **** __INLINE__ void  EE_systick_start(void)
  80:Generated_Source\PSoC5/ErikaOS_1_cortex_mx_ee_systick.inc **** {
  81:Generated_Source\PSoC5/ErikaOS_1_cortex_mx_ee_systick.inc ****   NVIC_ST_CTRL_R |= NVIC_ST_CTRL_CLK_SRC | NVIC_ST_CTRL_ENABLE;
  82:Generated_Source\PSoC5/ErikaOS_1_cortex_mx_ee_systick.inc **** }
ARM GAS  C:\Users\mau_g\AppData\Local\Temp\cc9UAEog.s 			page 18


  83:Generated_Source\PSoC5/ErikaOS_1_cortex_mx_ee_systick.inc **** 
  84:Generated_Source\PSoC5/ErikaOS_1_cortex_mx_ee_systick.inc **** /**
  85:Generated_Source\PSoC5/ErikaOS_1_cortex_mx_ee_systick.inc ****     @brief Stop SysTick.
  86:Generated_Source\PSoC5/ErikaOS_1_cortex_mx_ee_systick.inc **** 
  87:Generated_Source\PSoC5/ErikaOS_1_cortex_mx_ee_systick.inc ****     This will stop the SysTick counter.  If an ISR has been defined, it will
  88:Generated_Source\PSoC5/ErikaOS_1_cortex_mx_ee_systick.inc ****     no longer be called until SysTick is restarted.
  89:Generated_Source\PSoC5/ErikaOS_1_cortex_mx_ee_systick.inc **** */
  90:Generated_Source\PSoC5/ErikaOS_1_cortex_mx_ee_systick.inc **** __INLINE__ void  EE_systick_stop(void)
  91:Generated_Source\PSoC5/ErikaOS_1_cortex_mx_ee_systick.inc **** {
  92:Generated_Source\PSoC5/ErikaOS_1_cortex_mx_ee_systick.inc ****   NVIC_ST_CTRL_R &= ~(NVIC_ST_CTRL_ENABLE);
  93:Generated_Source\PSoC5/ErikaOS_1_cortex_mx_ee_systick.inc **** }
  94:Generated_Source\PSoC5/ErikaOS_1_cortex_mx_ee_systick.inc **** 
  95:Generated_Source\PSoC5/ErikaOS_1_cortex_mx_ee_systick.inc **** /**
  96:Generated_Source\PSoC5/ErikaOS_1_cortex_mx_ee_systick.inc ****     @brief Enables the SysTick interrupt.
  97:Generated_Source\PSoC5/ErikaOS_1_cortex_mx_ee_systick.inc **** 
  98:Generated_Source\PSoC5/ErikaOS_1_cortex_mx_ee_systick.inc ****     This function will enable the SysTick interrupt, allowing it to be
  99:Generated_Source\PSoC5/ErikaOS_1_cortex_mx_ee_systick.inc ****     reflected to the processor.
 100:Generated_Source\PSoC5/ErikaOS_1_cortex_mx_ee_systick.inc **** 
 101:Generated_Source\PSoC5/ErikaOS_1_cortex_mx_ee_systick.inc ****     @note The SysTick ISR does not need to clear the SysTick interrupt source as
 102:Generated_Source\PSoC5/ErikaOS_1_cortex_mx_ee_systick.inc ****     this is done automatically by NVIC when the interrupt ISR is called.
 103:Generated_Source\PSoC5/ErikaOS_1_cortex_mx_ee_systick.inc ****  */
 104:Generated_Source\PSoC5/ErikaOS_1_cortex_mx_ee_systick.inc **** __INLINE__ void  EE_systick_enable_int()
 105:Generated_Source\PSoC5/ErikaOS_1_cortex_mx_ee_systick.inc **** {
 106:Generated_Source\PSoC5/ErikaOS_1_cortex_mx_ee_systick.inc ****   NVIC_ST_CTRL_R |= NVIC_ST_CTRL_INTEN;
 107:Generated_Source\PSoC5/ErikaOS_1_cortex_mx_ee_systick.inc **** }
 108:Generated_Source\PSoC5/ErikaOS_1_cortex_mx_ee_systick.inc **** 
 109:Generated_Source\PSoC5/ErikaOS_1_cortex_mx_ee_systick.inc **** /**
 110:Generated_Source\PSoC5/ErikaOS_1_cortex_mx_ee_systick.inc ****     @brief Disables the SysTick interrupt.
 111:Generated_Source\PSoC5/ErikaOS_1_cortex_mx_ee_systick.inc **** 
 112:Generated_Source\PSoC5/ErikaOS_1_cortex_mx_ee_systick.inc ****     This function will disable the SysTick interrupt, preventing it from being
 113:Generated_Source\PSoC5/ErikaOS_1_cortex_mx_ee_systick.inc ****     reflected to the processor.
 114:Generated_Source\PSoC5/ErikaOS_1_cortex_mx_ee_systick.inc ****  */
 115:Generated_Source\PSoC5/ErikaOS_1_cortex_mx_ee_systick.inc **** __INLINE__ void  EE_systick_disable_int()
 116:Generated_Source\PSoC5/ErikaOS_1_cortex_mx_ee_systick.inc **** {
 117:Generated_Source\PSoC5/ErikaOS_1_cortex_mx_ee_systick.inc ****   NVIC_ST_CTRL_R &= ~(NVIC_ST_CTRL_INTEN);
 118:Generated_Source\PSoC5/ErikaOS_1_cortex_mx_ee_systick.inc **** }
 119:Generated_Source\PSoC5/ErikaOS_1_cortex_mx_ee_systick.inc **** 
 120:Generated_Source\PSoC5/ErikaOS_1_cortex_mx_ee_systick.inc **** /**
 121:Generated_Source\PSoC5/ErikaOS_1_cortex_mx_ee_systick.inc ****     @brief Sets the period of the SysTick counter.
 122:Generated_Source\PSoC5/ErikaOS_1_cortex_mx_ee_systick.inc **** 
 123:Generated_Source\PSoC5/ErikaOS_1_cortex_mx_ee_systick.inc ****     @param period is the number of clock ticks in each period of the SysTick
 124:Generated_Source\PSoC5/ErikaOS_1_cortex_mx_ee_systick.inc ****     counter; must be between 1 and 16,777,216, inclusive. If the \e period is
 125:Generated_Source\PSoC5/ErikaOS_1_cortex_mx_ee_systick.inc ****     out of range the function returns \b EE_SYSTICK_ERR_BAD_ARGS, else it will
 126:Generated_Source\PSoC5/ErikaOS_1_cortex_mx_ee_systick.inc ****     returns \b EE_SYSTICK_NO_ERRORS.
 127:Generated_Source\PSoC5/ErikaOS_1_cortex_mx_ee_systick.inc **** 
 128:Generated_Source\PSoC5/ErikaOS_1_cortex_mx_ee_systick.inc ****     This function sets the rate at which the SysTick counter wraps; this
 129:Generated_Source\PSoC5/ErikaOS_1_cortex_mx_ee_systick.inc ****     equates to the number of processor clocks between interrupts.
 130:Generated_Source\PSoC5/ErikaOS_1_cortex_mx_ee_systick.inc **** 
 131:Generated_Source\PSoC5/ErikaOS_1_cortex_mx_ee_systick.inc ****     @note Calling this function does not cause the SysTick counter to reload
 132:Generated_Source\PSoC5/ErikaOS_1_cortex_mx_ee_systick.inc ****     immediately.  If an immediate reload is required, the \b NVIC_ST_CURRENT
 133:Generated_Source\PSoC5/ErikaOS_1_cortex_mx_ee_systick.inc ****     register must be written.  Any write to this register clears the SysTick
 134:Generated_Source\PSoC5/ErikaOS_1_cortex_mx_ee_systick.inc ****     counter to 0 and will cause a reload with the \e period supplied here on
 135:Generated_Source\PSoC5/ErikaOS_1_cortex_mx_ee_systick.inc ****     the next clock after the SysTick is enabled.
 136:Generated_Source\PSoC5/ErikaOS_1_cortex_mx_ee_systick.inc ****  */
 137:Generated_Source\PSoC5/ErikaOS_1_cortex_mx_ee_systick.inc **** __INLINE__ EE_UREG  EE_systick_set_period(EE_UREG period)
 138:Generated_Source\PSoC5/ErikaOS_1_cortex_mx_ee_systick.inc **** {
 139:Generated_Source\PSoC5/ErikaOS_1_cortex_mx_ee_systick.inc ****   if ((period == NVIC_ST_RELOAD_S) || (period > NVIC_ST_RELOAD_M))
ARM GAS  C:\Users\mau_g\AppData\Local\Temp\cc9UAEog.s 			page 19


 140:Generated_Source\PSoC5/ErikaOS_1_cortex_mx_ee_systick.inc ****     return EE_SYSTICK_ERR_BAD_ARGS;
 141:Generated_Source\PSoC5/ErikaOS_1_cortex_mx_ee_systick.inc **** 
 142:Generated_Source\PSoC5/ErikaOS_1_cortex_mx_ee_systick.inc ****   NVIC_ST_RELOAD_R = period - 1;
 292              		.loc 5 142 0
 293 0004 45F6BF52 		movw	r2, #23999
 294 0008 054B     		ldr	r3, .L14
 295 000a 1A60     		str	r2, [r3]
 296              	.LVL20:
 297              	.LBE87:
 298              	.LBE86:
 299              	.LBB88:
 300              	.LBB89:
 106:Generated_Source\PSoC5/ErikaOS_1_cortex_mx_ee_systick.inc **** }
 301              		.loc 5 106 0
 302 000c 054A     		ldr	r2, .L14+4
 303 000e 1368     		ldr	r3, [r2]
 304 0010 43F00203 		orr	r3, r3, #2
 305 0014 1360     		str	r3, [r2]
 306              	.L12:
 307              	.LBE89:
 308              	.LBE88:
  32:Source\asw/main.c ****     
  33:Source\asw/main.c ****     //Set systick period to 1 ms. Enable the INT and start it
  34:Source\asw/main.c ****     EE_systick_set_period(MILLISECONDS_TO_TICKS(1, BCLK__BUS_CLK__HZ));
  35:Source\asw/main.c ****     EE_systick_enable_int();
  36:Source\asw/main.c **** 
  37:Source\asw/main.c ****     /* Place your initialization/startup code here (e.g. MyInst_Start()) */    
  38:Source\asw/main.c ****     
  39:Source\asw/main.c ****     for(;;)
  40:Source\asw/main.c ****         StartOS(OSDEFAULTAPPMODE);
 309              		.loc 1 40 0 discriminator 1
 310 0016 0020     		movs	r0, #0
 311 0018 FFF7FEFF 		bl	EE_oo_StartOS
 312              	.LVL21:
 313 001c FBE7     		b	.L12
 314              	.L15:
 315 001e 00BF     		.align	2
 316              	.L14:
 317 0020 14E000E0 		.word	-536813548
 318 0024 10E000E0 		.word	-536813552
 319              		.cfi_endproc
 320              	.LFE143:
 321              		.size	main, .-main
 322              		.section	.text.Functsk_init,"ax",%progbits
 323              		.align	2
 324              		.global	Functsk_init
 325              		.thumb
 326              		.thumb_func
 327              		.type	Functsk_init, %function
 328              	Functsk_init:
 329              	.LFB144:
  41:Source\asw/main.c **** }
  42:Source\asw/main.c **** 
  43:Source\asw/main.c **** /****************************************************************************
  44:Source\asw/main.c **** * Task Definitions
  45:Source\asw/main.c **** *****************************************************************************/
  46:Source\asw/main.c **** 
ARM GAS  C:\Users\mau_g\AppData\Local\Temp\cc9UAEog.s 			page 20


  47:Source\asw/main.c **** TASK(tsk_init)
  48:Source\asw/main.c **** {
 330              		.loc 1 48 0
 331              		.cfi_startproc
 332              		@ args = 0, pretend = 0, frame = 24
 333              		@ frame_needed = 0, uses_anonymous_args = 0
 334 0000 30B5     		push	{r4, r5, lr}
 335              		.cfi_def_cfa_offset 12
 336              		.cfi_offset 4, -12
 337              		.cfi_offset 5, -8
 338              		.cfi_offset 14, -4
 339 0002 87B0     		sub	sp, sp, #28
 340              		.cfi_def_cfa_offset 40
  49:Source\asw/main.c ****     //Init MCAL Drivers
  50:Source\asw/main.c ****     
  51:Source\asw/main.c ****     //LED_Init();
  52:Source\asw/main.c ****     //JOYSTICK_Init();
  53:Source\asw/main.c ****     //SEVEN_Init();
  54:Source\asw/main.c ****     UART_LOG_Start();
 341              		.loc 1 54 0
 342 0004 FFF7FEFF 		bl	UART_LOG_Start
 343              	.LVL22:
  55:Source\asw/main.c ****     TFT_init();
 344              		.loc 1 55 0
 345 0008 FFF7FEFF 		bl	TFT_init
 346              	.LVL23:
  56:Source\asw/main.c ****     
  57:Source\asw/main.c ****     //Reconfigure ISRs with OS parameters
  58:Source\asw/main.c ****     //This line MUST be called after the hardware driver initialization!
  59:Source\asw/main.c ****     EE_system_init();
 347              		.loc 1 59 0
 348 000c FFF7FEFF 		bl	EE_system_init
 349              	.LVL24:
 350              	.LBB90:
 351              	.LBB91:
  81:Generated_Source\PSoC5/ErikaOS_1_cortex_mx_ee_systick.inc **** }
 352              		.loc 5 81 0
 353 0010 364A     		ldr	r2, .L24
 354 0012 1368     		ldr	r3, [r2]
 355 0014 43F00503 		orr	r3, r3, #5
 356 0018 1360     		str	r3, [r2]
 357              	.LBE91:
 358              	.LBE90:
  60:Source\asw/main.c ****     
  61:Source\asw/main.c ****     //Start Systick
  62:Source\asw/main.c ****     //Must be done here, because otherwise the isr vector is not overwritten yet
  63:Source\asw/main.c ****     EE_systick_start();
  64:Source\asw/main.c ****     
  65:Source\asw/main.c ****     //Initialize clock signal
  66:Source\asw/main.c ****     SC_CLOCK_data_t myClock = SC_CLOCK_INIT_DATA;
 359              		.loc 1 66 0
 360 001a 354A     		ldr	r2, .L24+4
 361 001c 03AB     		add	r3, sp, #12
 362 001e 1068     		ldr	r0, [r2]	@ unaligned
 363 0020 5168     		ldr	r1, [r2, #4]	@ unaligned
 364 0022 03C3     		stmia	r3!, {r0, r1}
 365 0024 127A     		ldrb	r2, [r2, #8]	@ zero_extendqisi2
ARM GAS  C:\Users\mau_g\AppData\Local\Temp\cc9UAEog.s 			page 21


 366 0026 1A70     		strb	r2, [r3]
 367              	.LVL25:
 368 0028 6B46     		mov	r3, sp
 369 002a 06AA     		add	r2, sp, #24
 370 002c 12E90700 		ldmdb	r2, {r0, r1, r2}
 371 0030 03C3     		stmia	r3!, {r0, r1}
 372 0032 1A70     		strb	r2, [r3]
 373              	.LVL26:
 374              	.LBB92:
 375              	.LBB93:
 376              		.file 6 ".\\Source\\rte/sc_clock.h"
   1:.\Source\rte/sc_clock.h **** 
   2:.\Source\rte/sc_clock.h **** 
   3:.\Source\rte/sc_clock.h **** /**
   4:.\Source\rte/sc_clock.h **** *  file    SC_CLOCK_signal.h
   5:.\Source\rte/sc_clock.h **** *
   6:.\Source\rte/sc_clock.h **** *  brief   signal base class for signal sc_clock
   7:.\Source\rte/sc_clock.h **** *
   8:.\Source\rte/sc_clock.h **** *  author  Autogenerated, Peter Fromm       <peter.fromm@h-da.de>
   9:.\Source\rte/sc_clock.h **** *
  10:.\Source\rte/sc_clock.h **** *
  11:.\Source\rte/sc_clock.h **** */
  12:.\Source\rte/sc_clock.h **** 
  13:.\Source\rte/sc_clock.h **** /*
  14:.\Source\rte/sc_clock.h **** * description: Signalclass for the clock including the hour and the minute widget
  15:.\Source\rte/sc_clock.h **** * name: sc_clock
  16:.\Source\rte/sc_clock.h **** * shortname: clock
  17:.\Source\rte/sc_clock.h **** */
  18:.\Source\rte/sc_clock.h **** 
  19:.\Source\rte/sc_clock.h **** #ifndef SC_CLOCK_SIGNAL_H_INCLUDED
  20:.\Source\rte/sc_clock.h **** #define SC_CLOCK_SIGNAL_H_INCLUDED
  21:.\Source\rte/sc_clock.h **** 
  22:.\Source\rte/sc_clock.h **** /*================================================[ public includes  ]=============================
  23:.\Source\rte/sc_clock.h **** #include "global.h"
  24:.\Source\rte/sc_clock.h **** #include "project.h"
  25:.\Source\rte/sc_clock.h **** #include "rte.h"
  26:.\Source\rte/sc_clock.h **** #include "rte_types.h"
  27:.\Source\rte/sc_clock.h **** 
  28:.\Source\rte/sc_clock.h **** #include "sc_clock_type.h"
  29:.\Source\rte/sc_clock.h **** 
  30:.\Source\rte/sc_clock.h **** 
  31:.\Source\rte/sc_clock.h **** /**************************************************************************************************
  32:.\Source\rte/sc_clock.h **** /* The driver API block																						*/
  33:.\Source\rte/sc_clock.h **** /**************************************************************************************************
  34:.\Source\rte/sc_clock.h ****                                                                                                    
  35:.\Source\rte/sc_clock.h **** /**
  36:.\Source\rte/sc_clock.h ****  *  Definition of function types for driver interfaces.
  37:.\Source\rte/sc_clock.h ****  *  I-Port
  38:.\Source\rte/sc_clock.h ****  */
  39:.\Source\rte/sc_clock.h **** typedef RC_t (*SC_CLOCK_driverIn_t)(SC_CLOCK_data_t * const);
  40:.\Source\rte/sc_clock.h **** 
  41:.\Source\rte/sc_clock.h **** /**
  42:.\Source\rte/sc_clock.h ****  *  Definition of function types for driver interfaces.
  43:.\Source\rte/sc_clock.h ****  *  O-Port
  44:.\Source\rte/sc_clock.h ****  */
  45:.\Source\rte/sc_clock.h **** typedef RC_t (*SC_CLOCK_driverOut_t)( const SC_CLOCK_data_t * const);
  46:.\Source\rte/sc_clock.h **** 
ARM GAS  C:\Users\mau_g\AppData\Local\Temp\cc9UAEog.s 			page 22


  47:.\Source\rte/sc_clock.h **** 
  48:.\Source\rte/sc_clock.h **** /**************************************************************************************************
  49:.\Source\rte/sc_clock.h **** /* The signal configuration API block																				*/
  50:.\Source\rte/sc_clock.h **** /**************************************************************************************************
  51:.\Source\rte/sc_clock.h **** 
  52:.\Source\rte/sc_clock.h **** /**
  53:.\Source\rte/sc_clock.h ****  * Instances of the struct SC_CLOCK_cfg_t represent the signal object configuration.
  54:.\Source\rte/sc_clock.h ****  */
  55:.\Source\rte/sc_clock.h **** struct SC_CLOCK_cfg_s
  56:.\Source\rte/sc_clock.h **** {
  57:.\Source\rte/sc_clock.h ****     /**
  58:.\Source\rte/sc_clock.h ****      * Function pointer to the input driver
  59:.\Source\rte/sc_clock.h ****      */
  60:.\Source\rte/sc_clock.h ****     SC_CLOCK_driverIn_t const inDriver;
  61:.\Source\rte/sc_clock.h **** 
  62:.\Source\rte/sc_clock.h ****     /**
  63:.\Source\rte/sc_clock.h ****      * Function pointer to the output driver table
  64:.\Source\rte/sc_clock.h ****      */
  65:.\Source\rte/sc_clock.h ****    SC_CLOCK_driverOut_t const outDriver;
  66:.\Source\rte/sc_clock.h ****    
  67:.\Source\rte/sc_clock.h ****     /**
  68:.\Source\rte/sc_clock.h ****      * Event onUpdate
  69:.\Source\rte/sc_clock.h ****      */
  70:.\Source\rte/sc_clock.h ****     EventMaskType const evOnUpdate;
  71:.\Source\rte/sc_clock.h ****     
  72:.\Source\rte/sc_clock.h ****     
  73:.\Source\rte/sc_clock.h ****     /**
  74:.\Source\rte/sc_clock.h ****      * Event onError
  75:.\Source\rte/sc_clock.h ****      */
  76:.\Source\rte/sc_clock.h ****     EventMaskType const evOnError;
  77:.\Source\rte/sc_clock.h ****     
  78:.\Source\rte/sc_clock.h ****     /**
  79:.\Source\rte/sc_clock.h ****      * Task Count onUpdate
  80:.\Source\rte/sc_clock.h ****      */
  81:.\Source\rte/sc_clock.h ****     size_t const onUpdateTaskCount;
  82:.\Source\rte/sc_clock.h **** 
  83:.\Source\rte/sc_clock.h ****     /**
  84:.\Source\rte/sc_clock.h ****      * Task List onUpdate
  85:.\Source\rte/sc_clock.h ****      */
  86:.\Source\rte/sc_clock.h ****     TaskTypeArray* const onUpdateTasks;
  87:.\Source\rte/sc_clock.h ****     
  88:.\Source\rte/sc_clock.h ****     /**
  89:.\Source\rte/sc_clock.h ****      * Task Count onError
  90:.\Source\rte/sc_clock.h ****      */
  91:.\Source\rte/sc_clock.h ****     size_t const onErrorTaskCount;
  92:.\Source\rte/sc_clock.h **** 
  93:.\Source\rte/sc_clock.h ****     /**
  94:.\Source\rte/sc_clock.h ****      * Task List onError
  95:.\Source\rte/sc_clock.h ****      */
  96:.\Source\rte/sc_clock.h ****     TaskTypeArray* const onErrorTasks;
  97:.\Source\rte/sc_clock.h **** 	
  98:.\Source\rte/sc_clock.h **** 	
  99:.\Source\rte/sc_clock.h **** 	/**
 100:.\Source\rte/sc_clock.h **** 	 * Ressourse is active? We need an additional boolean as a ressource value 0 is valid.
 101:.\Source\rte/sc_clock.h **** 	 */
 102:.\Source\rte/sc_clock.h **** 	 boolean_t const resourceActive;
 103:.\Source\rte/sc_clock.h **** 	 
ARM GAS  C:\Users\mau_g\AppData\Local\Temp\cc9UAEog.s 			page 23


 104:.\Source\rte/sc_clock.h **** 	/**
 105:.\Source\rte/sc_clock.h **** 	 * Ressourse 
 106:.\Source\rte/sc_clock.h **** 	 */
 107:.\Source\rte/sc_clock.h **** 	 ResourceType const resource;
 108:.\Source\rte/sc_clock.h **** 
 109:.\Source\rte/sc_clock.h **** };                                                                                                 
 110:.\Source\rte/sc_clock.h **** typedef const struct SC_CLOCK_cfg_s SC_CLOCK_cfg_t;
 111:.\Source\rte/sc_clock.h ****                               
 112:.\Source\rte/sc_clock.h **** /**************************************************************************************************
 113:.\Source\rte/sc_clock.h **** /* The data interface block																							*/
 114:.\Source\rte/sc_clock.h **** /**************************************************************************************************
 115:.\Source\rte/sc_clock.h **** 
 116:.\Source\rte/sc_clock.h ****                                                                                                    
 117:.\Source\rte/sc_clock.h **** 							  
 118:.\Source\rte/sc_clock.h **** /**
 119:.\Source\rte/sc_clock.h ****  * Instances of the struct SC_CLOCK_t represent the signal objects.
 120:.\Source\rte/sc_clock.h ****  * A signal object contains the current application value 'value' as well as relevant meta data.
 121:.\Source\rte/sc_clock.h ****  */
 122:.\Source\rte/sc_clock.h **** struct SC_CLOCK_s
 123:.\Source\rte/sc_clock.h **** {                                                                                                  
 124:.\Source\rte/sc_clock.h **** 
 125:.\Source\rte/sc_clock.h **** 	/**
 126:.\Source\rte/sc_clock.h **** 	 * Data buffer for the application value
 127:.\Source\rte/sc_clock.h **** 	 */
 128:.\Source\rte/sc_clock.h ****     SC_CLOCK_data_t value;
 129:.\Source\rte/sc_clock.h **** 
 130:.\Source\rte/sc_clock.h ****     /**
 131:.\Source\rte/sc_clock.h ****      * Current signal status
 132:.\Source\rte/sc_clock.h ****      */
 133:.\Source\rte/sc_clock.h ****     RTE_signalStatus_t status;
 134:.\Source\rte/sc_clock.h **** 
 135:.\Source\rte/sc_clock.h ****     /**
 136:.\Source\rte/sc_clock.h ****      * Current age of the signal (in calling cycles)
 137:.\Source\rte/sc_clock.h ****      */
 138:.\Source\rte/sc_clock.h ****     uint32_t age;
 139:.\Source\rte/sc_clock.h **** 
 140:.\Source\rte/sc_clock.h ****     /**
 141:.\Source\rte/sc_clock.h ****      * Pointer to the signal configuration
 142:.\Source\rte/sc_clock.h ****      */
 143:.\Source\rte/sc_clock.h **** 	const SC_CLOCK_cfg_t * const    pSigCfg;
 144:.\Source\rte/sc_clock.h **** 
 145:.\Source\rte/sc_clock.h **** };                                                                                                 
 146:.\Source\rte/sc_clock.h **** typedef struct SC_CLOCK_s SC_CLOCK_t;
 147:.\Source\rte/sc_clock.h **** 
 148:.\Source\rte/sc_clock.h **** /**************************************************************************************************
 149:.\Source\rte/sc_clock.h **** /* Signal initialisation   																							*/
 150:.\Source\rte/sc_clock.h **** /**************************************************************************************************
 151:.\Source\rte/sc_clock.h **** 
 152:.\Source\rte/sc_clock.h **** /**
 153:.\Source\rte/sc_clock.h ****  * Initializes a signal instance with a passed init value.
 154:.\Source\rte/sc_clock.h ****  * Depending on the configured conversion or scaling function the raw_value will be calculated.
 155:.\Source\rte/sc_clock.h ****  * Signal status will change from RTE_SIGNALSTATUS_STARTUP to RTE_SIGNALSTATUS_INITIALIZED.
 156:.\Source\rte/sc_clock.h ****  *
 157:.\Source\rte/sc_clock.h ****  * @param  SC_CLOCK_t * const signal: Pointer to the signal object which will be initialised
 158:.\Source\rte/sc_clock.h ****  * @param const sc_clock_data_t * const value: Pointer to initial value of the application data
 159:.\Source\rte/sc_clock.h ****  * @return RC_t: standard return code, currently only RC_SUCCESS
 160:.\Source\rte/sc_clock.h ****  *
ARM GAS  C:\Users\mau_g\AppData\Local\Temp\cc9UAEog.s 			page 24


 161:.\Source\rte/sc_clock.h ****  **/
 162:.\Source\rte/sc_clock.h **** inline RC_t RTE_SC_CLOCK_init( SC_CLOCK_t * const signal, const SC_CLOCK_data_t * const value )
 163:.\Source\rte/sc_clock.h **** {                                                                                                  
 164:.\Source\rte/sc_clock.h **** 
 165:.\Source\rte/sc_clock.h ****    RC_t ret = RC_SUCCESS;
 166:.\Source\rte/sc_clock.h **** 
 167:.\Source\rte/sc_clock.h ****    //Set value and raw value
 168:.\Source\rte/sc_clock.h ****    signal->value  = *value;
 169:.\Source\rte/sc_clock.h ****    signal->age    = 0;
 170:.\Source\rte/sc_clock.h ****    signal->status = RTE_SIGNALSTATUS_INITIALIZED;
 171:.\Source\rte/sc_clock.h **** 
 172:.\Source\rte/sc_clock.h ****    return ret;
 173:.\Source\rte/sc_clock.h **** }
 174:.\Source\rte/sc_clock.h **** 
 175:.\Source\rte/sc_clock.h **** /**************************************************************************************************
 176:.\Source\rte/sc_clock.h **** /* Status and timeout control																						*/
 177:.\Source\rte/sc_clock.h **** /**************************************************************************************************
 178:.\Source\rte/sc_clock.h **** 
 179:.\Source\rte/sc_clock.h **** /**
 180:.\Source\rte/sc_clock.h ****  *  Returns the current signal status of the passed signal instance.
 181:.\Source\rte/sc_clock.h ****  *
 182:.\Source\rte/sc_clock.h ****  * @param  SC_CLOCK_t * const signal: Pointer to the signal object
 183:.\Source\rte/sc_clock.h ****  * @return  sig_status_t: The current signal status
 184:.\Source\rte/sc_clock.h ****  *
 185:.\Source\rte/sc_clock.h ****  **/
 186:.\Source\rte/sc_clock.h **** inline RTE_signalStatus_t RTE_SC_CLOCK_getStatus( const SC_CLOCK_t * const signal )
 187:.\Source\rte/sc_clock.h **** {
 188:.\Source\rte/sc_clock.h ****    return signal->status;
 189:.\Source\rte/sc_clock.h **** }
 190:.\Source\rte/sc_clock.h **** 
 191:.\Source\rte/sc_clock.h **** 
 192:.\Source\rte/sc_clock.h **** /**
 193:.\Source\rte/sc_clock.h ****  *  Sets a new signal status of the passed signal instance by passing the new status.
 194:.\Source\rte/sc_clock.h ****  *
 195:.\Source\rte/sc_clock.h ****  * @param  SC_CLOCK_t * const signal: Pointer to the signal object
 196:.\Source\rte/sc_clock.h ****  * @param  const sig_status_t status: New signal status
 197:.\Source\rte/sc_clock.h ****  * @return RC_t: standard return code, currently only RC_SUCCESS
 198:.\Source\rte/sc_clock.h ****  *
 199:.\Source\rte/sc_clock.h ****  */
 200:.\Source\rte/sc_clock.h **** inline RC_t RTE_SC_CLOCK_setStatus( SC_CLOCK_t * const signal, const RTE_signalStatus_t status )
 201:.\Source\rte/sc_clock.h **** {
 202:.\Source\rte/sc_clock.h ****    signal->status = status;
 203:.\Source\rte/sc_clock.h ****    size_t taskNum=0;
 204:.\Source\rte/sc_clock.h ****    
 205:.\Source\rte/sc_clock.h ****    //Fire error events in case of invalid state
 206:.\Source\rte/sc_clock.h ****    if (signal->status == RTE_SIGNALSTATUS_INVALID)
 207:.\Source\rte/sc_clock.h ****    {
 208:.\Source\rte/sc_clock.h **** 	    //Pointer to the Taskarray, containing the tasks receiving the onUpdate events
 209:.\Source\rte/sc_clock.h **** 		TaskTypeArray* pTaskArray = signal->pSigCfg->onErrorTasks;
 210:.\Source\rte/sc_clock.h **** 
 211:.\Source\rte/sc_clock.h **** 		if (NULL!=signal->pSigCfg->evOnError && NULL != pTaskArray){
 212:.\Source\rte/sc_clock.h **** 			for( taskNum=0 ; taskNum < signal->pSigCfg->onErrorTaskCount ;taskNum++){
 213:.\Source\rte/sc_clock.h **** 				TaskType task = (*pTaskArray)[taskNum];
 214:.\Source\rte/sc_clock.h **** 				SetEvent( task, signal->pSigCfg->evOnError);
 215:.\Source\rte/sc_clock.h **** 			}
 216:.\Source\rte/sc_clock.h **** 		}
 217:.\Source\rte/sc_clock.h ****    }
ARM GAS  C:\Users\mau_g\AppData\Local\Temp\cc9UAEog.s 			page 25


 218:.\Source\rte/sc_clock.h ****    
 219:.\Source\rte/sc_clock.h ****    return RC_SUCCESS;
 220:.\Source\rte/sc_clock.h **** }
 221:.\Source\rte/sc_clock.h **** 
 222:.\Source\rte/sc_clock.h **** 
 223:.\Source\rte/sc_clock.h **** /**
 224:.\Source\rte/sc_clock.h ****  * Returns the count of refreshing trials (refresh, set or set_raw) that failed.
 225:.\Source\rte/sc_clock.h ****  * Prerquisite: The signal is refreshed cyclically
 226:.\Source\rte/sc_clock.h ****  *
 227:.\Source\rte/sc_clock.h ****  * @param  SC_CLOCK_t * const signal: Pointer to the signal object
 228:.\Source\rte/sc_clock.h ****  * @return uint32_t: Number of cycles since the signal has been updated for the last time
 229:.\Source\rte/sc_clock.h ****  */
 230:.\Source\rte/sc_clock.h **** inline uint32_t RTE_SC_CLOCK_getAge( const SC_CLOCK_t * const signal )
 231:.\Source\rte/sc_clock.h **** {
 232:.\Source\rte/sc_clock.h ****    return signal->age;
 233:.\Source\rte/sc_clock.h **** }
 234:.\Source\rte/sc_clock.h **** 
 235:.\Source\rte/sc_clock.h **** /**
 236:.\Source\rte/sc_clock.h ****  * Should be called by application or driver if no new value can be provided.
 237:.\Source\rte/sc_clock.h ****  * @param  SC_CLOCK_t * const signal: Pointer to the signal object
 238:.\Source\rte/sc_clock.h ****  * @param uint32_t increment: incrementvalue, typically in [ms]
 239:.\Source\rte/sc_clock.h ****  * @return void
 240:.\Source\rte/sc_clock.h ****  */
 241:.\Source\rte/sc_clock.h **** inline void RTE_SC_CLOCK_incAge(  SC_CLOCK_t * const signal , uint32_t increment)
 242:.\Source\rte/sc_clock.h **** {
 243:.\Source\rte/sc_clock.h **** 	   //Hack....
 244:.\Source\rte/sc_clock.h **** 	   if ( 0xFFFF0000 > (signal->age + increment) )
 245:.\Source\rte/sc_clock.h **** 	   {
 246:.\Source\rte/sc_clock.h **** 	      signal->age += increment;
 247:.\Source\rte/sc_clock.h **** 	   }
 248:.\Source\rte/sc_clock.h **** }
 249:.\Source\rte/sc_clock.h **** 
 250:.\Source\rte/sc_clock.h **** 
 251:.\Source\rte/sc_clock.h **** /**************************************************************************************************
 252:.\Source\rte/sc_clock.h **** /* Application Data read/write Interface																			*/
 253:.\Source\rte/sc_clock.h **** /**************************************************************************************************
 254:.\Source\rte/sc_clock.h **** 
 255:.\Source\rte/sc_clock.h **** /**
 256:.\Source\rte/sc_clock.h ****  * Returns the current application value of the passed signal instance.
 257:.\Source\rte/sc_clock.h ****  *
 258:.\Source\rte/sc_clock.h ****  * @param  SC_CLOCK_t * const signal: Pointer to the signal object
 259:.\Source\rte/sc_clock.h ****  * @return sc_clock_data_t: current value of the application data buffer
 260:.\Source\rte/sc_clock.h ****  *
 261:.\Source\rte/sc_clock.h ****  **/
 262:.\Source\rte/sc_clock.h **** inline SC_CLOCK_data_t RTE_SC_CLOCK_get( const SC_CLOCK_t * const signal )
 263:.\Source\rte/sc_clock.h **** {               
 264:.\Source\rte/sc_clock.h ****    //Todo: Critical region cannot be protected using return values																						
 265:.\Source\rte/sc_clock.h ****    return signal->value;                                                                           
 266:.\Source\rte/sc_clock.h **** }                                                                                                  
 267:.\Source\rte/sc_clock.h ****                                                                                                    
 268:.\Source\rte/sc_clock.h **** /**
 269:.\Source\rte/sc_clock.h ****  * Returns the current application value of the passed signal instance threadsafe.
 270:.\Source\rte/sc_clock.h ****  *
 271:.\Source\rte/sc_clock.h ****  * @param  SC_CLOCK_t * const signal: Pointer to the signal object
 272:.\Source\rte/sc_clock.h ****  * @param  SC_CLOCK_data_t* data: Pointer to the return data Pointer to the signal object
 273:.\Source\rte/sc_clock.h ****  * @return RC_SUCCESS
 274:.\Source\rte/sc_clock.h ****  *
ARM GAS  C:\Users\mau_g\AppData\Local\Temp\cc9UAEog.s 			page 26


 275:.\Source\rte/sc_clock.h ****  **/
 276:.\Source\rte/sc_clock.h **** inline RC_t RTE_SC_CLOCK_getThreadSafe( const SC_CLOCK_t * const signal, SC_CLOCK_data_t * const da
 277:.\Source\rte/sc_clock.h **** {    
 278:.\Source\rte/sc_clock.h ****    if (TRUE == signal->pSigCfg->resourceActive) GetResource(signal->pSigCfg->resource);
 279:.\Source\rte/sc_clock.h ****    *data = signal->value;
 280:.\Source\rte/sc_clock.h ****    if (TRUE == signal->pSigCfg->resourceActive) ReleaseResource(signal->pSigCfg->resource);        
 281:.\Source\rte/sc_clock.h **** 
 282:.\Source\rte/sc_clock.h ****    return RC_SUCCESS;                                                                   
 283:.\Source\rte/sc_clock.h ****    
 284:.\Source\rte/sc_clock.h **** }                                                                                                  
 285:.\Source\rte/sc_clock.h ****                                                                                                    
 286:.\Source\rte/sc_clock.h **** /**
 287:.\Source\rte/sc_clock.h ****  * Sets a new application value to the passed signal instance by passing the new value.
 288:.\Source\rte/sc_clock.h ****  * The corresponding driver raw value will be calculated immediately by using the default conversio
 289:.\Source\rte/sc_clock.h ****  * signal specific scaling function.
 290:.\Source\rte/sc_clock.h ****  * The signal age will be set to 0 and the new status will be 'RTE_SIGNALSTATUS_VALID'.
 291:.\Source\rte/sc_clock.h ****  *
 292:.\Source\rte/sc_clock.h ****  * @param  SC_CLOCK_t * const signal: Pointer to the signal object
 293:.\Source\rte/sc_clock.h ****  * @param  sc_clock_data_t const value: value for the application data buffer
 294:.\Source\rte/sc_clock.h ****  * @return RC_t: standard return code, currently only RC_SUCCESS
 295:.\Source\rte/sc_clock.h ****  *
 296:.\Source\rte/sc_clock.h ****  **/
 297:.\Source\rte/sc_clock.h **** inline RC_t RTE_SC_CLOCK_set(SC_CLOCK_t * const signal, const SC_CLOCK_data_t value  )
 298:.\Source\rte/sc_clock.h **** {
 299:.\Source\rte/sc_clock.h **** 
 300:.\Source\rte/sc_clock.h ****    RC_t ret = RC_SUCCESS;
 301:.\Source\rte/sc_clock.h ****    size_t taskNum=0;
 302:.\Source\rte/sc_clock.h **** 
 303:.\Source\rte/sc_clock.h **** 
 304:.\Source\rte/sc_clock.h ****    if (TRUE == signal->pSigCfg->resourceActive) GetResource(signal->pSigCfg->resource);
 377              		.loc 6 304 0
 378 0034 2F4B     		ldr	r3, .L24+8
 379 0036 1B69     		ldr	r3, [r3, #16]
 380 0038 93F82020 		ldrb	r2, [r3, #32]	@ zero_extendqisi2
 381 003c 012A     		cmp	r2, #1
 382 003e 02D1     		bne	.L17
 383 0040 586A     		ldr	r0, [r3, #36]
 384 0042 FFF7FEFF 		bl	EE_oo_GetResource
 385              	.LVL27:
 386              	.L17:
 305:.\Source\rte/sc_clock.h ****    signal->value  = value;
 387              		.loc 6 305 0
 388 0046 2B4C     		ldr	r4, .L24+8
 389 0048 2346     		mov	r3, r4
 390 004a 9DE80700 		ldmia	sp, {r0, r1, r2}
 391 004e 03C3     		stmia	r3!, {r0, r1}
 392 0050 1A70     		strb	r2, [r3]
 306:.\Source\rte/sc_clock.h ****    signal->age    = 0;
 393              		.loc 6 306 0
 394 0052 0023     		movs	r3, #0
 395 0054 E360     		str	r3, [r4, #12]
 307:.\Source\rte/sc_clock.h ****    signal->status = RTE_SIGNALSTATUS_VALID;
 396              		.loc 6 307 0
 397 0056 0223     		movs	r3, #2
 398 0058 6372     		strb	r3, [r4, #9]
 308:.\Source\rte/sc_clock.h ****    if (TRUE == signal->pSigCfg->resourceActive) ReleaseResource(signal->pSigCfg->resource);
 399              		.loc 6 308 0
ARM GAS  C:\Users\mau_g\AppData\Local\Temp\cc9UAEog.s 			page 27


 400 005a 2369     		ldr	r3, [r4, #16]
 401 005c 93F82020 		ldrb	r2, [r3, #32]	@ zero_extendqisi2
 402 0060 012A     		cmp	r2, #1
 403 0062 02D1     		bne	.L18
 404 0064 586A     		ldr	r0, [r3, #36]
 405 0066 FFF7FEFF 		bl	EE_oo_ReleaseResource
 406              	.LVL28:
 407              	.L18:
 309:.\Source\rte/sc_clock.h **** 
 310:.\Source\rte/sc_clock.h ****    //Pointer to the Taskarray, containing the tasks receiving the onUpdate events
 311:.\Source\rte/sc_clock.h ****    TaskTypeArray* pTaskArray = signal->pSigCfg->onUpdateTasks;
 408              		.loc 6 311 0
 409 006a 224B     		ldr	r3, .L24+8
 410 006c 1B69     		ldr	r3, [r3, #16]
 411 006e 5D69     		ldr	r5, [r3, #20]
 412              	.LVL29:
 312:.\Source\rte/sc_clock.h **** 
 313:.\Source\rte/sc_clock.h ****    if (NULL!=signal->pSigCfg->evOnUpdate && NULL != pTaskArray){
 413              		.loc 6 313 0
 414 0070 9B68     		ldr	r3, [r3, #8]
 415 0072 73B1     		cbz	r3, .L19
 416 0074 3DB9     		cbnz	r5, .L22
 417 0076 0CE0     		b	.L19
 418              	.LVL30:
 419              	.L21:
 420              	.LBB94:
 314:.\Source\rte/sc_clock.h ****       for( taskNum=0 ; taskNum < signal->pSigCfg->onUpdateTaskCount ;taskNum++){
 315:.\Source\rte/sc_clock.h **** 		  
 316:.\Source\rte/sc_clock.h ****           TaskType task = (*pTaskArray)[taskNum];
 317:.\Source\rte/sc_clock.h **** 	      SetEvent( task, signal->pSigCfg->evOnUpdate);
 421              		.loc 6 317 0
 422 0078 9968     		ldr	r1, [r3, #8]
 423 007a 55F82400 		ldr	r0, [r5, r4, lsl #2]
 424 007e FFF7FEFF 		bl	EE_oo_SetEvent
 425              	.LVL31:
 426              	.LBE94:
 314:.\Source\rte/sc_clock.h ****       for( taskNum=0 ; taskNum < signal->pSigCfg->onUpdateTaskCount ;taskNum++){
 427              		.loc 6 314 0
 428 0082 0134     		adds	r4, r4, #1
 429              	.LVL32:
 430 0084 00E0     		b	.L20
 431              	.LVL33:
 432              	.L22:
 313:.\Source\rte/sc_clock.h ****       for( taskNum=0 ; taskNum < signal->pSigCfg->onUpdateTaskCount ;taskNum++){
 433              		.loc 6 313 0
 434 0086 0024     		movs	r4, #0
 435              	.LVL34:
 436              	.L20:
 314:.\Source\rte/sc_clock.h ****       for( taskNum=0 ; taskNum < signal->pSigCfg->onUpdateTaskCount ;taskNum++){
 437              		.loc 6 314 0
 438 0088 1A4B     		ldr	r3, .L24+8
 439 008a 1B69     		ldr	r3, [r3, #16]
 440 008c 1A69     		ldr	r2, [r3, #16]
 441 008e 9442     		cmp	r4, r2
 442 0090 F2D3     		bcc	.L21
 443              	.LVL35:
 444              	.L19:
ARM GAS  C:\Users\mau_g\AppData\Local\Temp\cc9UAEog.s 			page 28


 445              	.LBE93:
 446              	.LBE92:
  67:Source\asw/main.c ****     RTE_SC_CLOCK_set(&SO_CLOCK_DISPLAY_signal, myClock);
  68:Source\asw/main.c ****     
  69:Source\asw/main.c ****     TFT_setBacklight(100);
 447              		.loc 1 69 0
 448 0092 6420     		movs	r0, #100
 449 0094 FFF7FEFF 		bl	TFT_setBacklight
 450              	.LVL36:
  70:Source\asw/main.c ****     TFT_setTextSize(1);
 451              		.loc 1 70 0
 452 0098 0120     		movs	r0, #1
 453 009a FFF7FEFF 		bl	TFT_setTextSize
 454              	.LVL37:
  71:Source\asw/main.c ****     TFT_setColors(BLACK, WHITE);
 455              		.loc 1 71 0
 456 009e 4FF6FF71 		movw	r1, #65535
 457 00a2 0020     		movs	r0, #0
 458 00a4 FFF7FEFF 		bl	TFT_setColors
 459              	.LVL38:
  72:Source\asw/main.c ****     TFT_print("1112296 - EAA LAB 2\n");
 460              		.loc 1 72 0
 461 00a8 1348     		ldr	r0, .L24+12
 462 00aa FFF7FEFF 		bl	TFT_print
 463              	.LVL39:
  73:Source\asw/main.c ****     
  74:Source\asw/main.c ****     //Start the cyclic alarms 
  75:Source\asw/main.c ****     SetRelAlarm(alrm_cyclic, 1, 1);
 464              		.loc 1 75 0
 465 00ae 0122     		movs	r2, #1
 466 00b0 1146     		mov	r1, r2
 467 00b2 0020     		movs	r0, #0
 468 00b4 FFF7FEFF 		bl	EE_oo_SetRelAlarm
 469              	.LVL40:
  76:Source\asw/main.c ****     SetRelAlarm(alrm_250ms, 300, 250);
 470              		.loc 1 76 0
 471 00b8 FA22     		movs	r2, #250
 472 00ba 4FF49671 		mov	r1, #300
 473 00be 0120     		movs	r0, #1
 474 00c0 FFF7FEFF 		bl	EE_oo_SetRelAlarm
 475              	.LVL41:
  77:Source\asw/main.c ****     SetRelAlarm(alrm_1s, 1000, 1000);
 476              		.loc 1 77 0
 477 00c4 4FF47A72 		mov	r2, #1000
 478 00c8 1146     		mov	r1, r2
 479 00ca 0220     		movs	r0, #2
 480 00cc FFF7FEFF 		bl	EE_oo_SetRelAlarm
 481              	.LVL42:
  78:Source\asw/main.c **** 
  79:Source\asw/main.c ****     //Activate all extended and background task
  80:Source\asw/main.c ****     
  81:Source\asw/main.c ****     ActivateTask(tsk_control);
 482              		.loc 1 81 0
 483 00d0 0320     		movs	r0, #3
 484 00d2 FFF7FEFF 		bl	EE_oo_ActivateTask
 485              	.LVL43:
  82:Source\asw/main.c ****     
ARM GAS  C:\Users\mau_g\AppData\Local\Temp\cc9UAEog.s 			page 29


  83:Source\asw/main.c ****     ActivateTask(tsk_background);
 486              		.loc 1 83 0
 487 00d6 0120     		movs	r0, #1
 488 00d8 FFF7FEFF 		bl	EE_oo_ActivateTask
 489              	.LVL44:
  84:Source\asw/main.c ****     
  85:Source\asw/main.c ****     UART_LOG_PutString("1112296 - EAA LAB 2 \n");
 490              		.loc 1 85 0
 491 00dc 0748     		ldr	r0, .L24+16
 492 00de FFF7FEFF 		bl	UART_LOG_PutString
 493              	.LVL45:
  86:Source\asw/main.c ****     
  87:Source\asw/main.c ****     TerminateTask();
 494              		.loc 1 87 0
 495 00e2 FFF7FEFF 		bl	EE_oo_TerminateTask
 496              	.LVL46:
  88:Source\asw/main.c **** }
 497              		.loc 1 88 0
 498 00e6 07B0     		add	sp, sp, #28
 499              		.cfi_def_cfa_offset 12
 500              		@ sp needed
 501 00e8 30BD     		pop	{r4, r5, pc}
 502              	.L25:
 503 00ea 00BF     		.align	2
 504              	.L24:
 505 00ec 10E000E0 		.word	-536813552
 506 00f0 00000000 		.word	.LANCHOR0
 507 00f4 00000000 		.word	SO_CLOCK_DISPLAY_signal
 508 00f8 00000000 		.word	.LC1
 509 00fc 18000000 		.word	.LC2
 510              		.cfi_endproc
 511              	.LFE144:
 512              		.size	Functsk_init, .-Functsk_init
 513              		.section	.text.Functsk_background,"ax",%progbits
 514              		.align	2
 515              		.global	Functsk_background
 516              		.thumb
 517              		.thumb_func
 518              		.type	Functsk_background, %function
 519              	Functsk_background:
 520              	.LFB145:
  89:Source\asw/main.c **** 
  90:Source\asw/main.c **** TASK(tsk_background)
  91:Source\asw/main.c **** {
 521              		.loc 1 91 0
 522              		.cfi_startproc
 523              		@ Volatile: function does not return.
 524              		@ args = 0, pretend = 0, frame = 0
 525              		@ frame_needed = 0, uses_anonymous_args = 0
 526              		@ link register save eliminated.
 527              	.L27:
  92:Source\asw/main.c ****     while(1)
  93:Source\asw/main.c ****     {
  94:Source\asw/main.c ****         __asm("nop");
 528              		.loc 1 94 0 discriminator 1
 529              		.syntax unified
 530              	@ 94 "Source\asw\main.c" 1
ARM GAS  C:\Users\mau_g\AppData\Local\Temp\cc9UAEog.s 			page 30


 531 0000 00BF     		nop
 532              	@ 0 "" 2
 533              		.thumb
 534              		.syntax unified
 535 0002 FDE7     		b	.L27
 536              		.cfi_endproc
 537              	.LFE145:
 538              		.size	Functsk_background, .-Functsk_background
 539              		.section	.rodata
 540              		.align	2
 541              		.set	.LANCHOR0,. + 0
 542              	.LC0:
 543 0000 00       		.byte	0
 544 0001 00       		.byte	0
 545 0002 17       		.byte	23
 546 0003 01       		.byte	1
 547 0004 00       		.byte	0
 548 0005 00       		.byte	0
 549 0006 3B       		.byte	59
 550 0007 01       		.byte	1
 551 0008 00       		.byte	0
 552              		.section	.rodata.str1.4,"aMS",%progbits,1
 553              		.align	2
 554              	.LC1:
 555 0000 31313132 		.ascii	"1112296 - EAA LAB 2\012\000"
 555      32393620 
 555      2D204541 
 555      41204C41 
 555      4220320A 
 556 0015 000000   		.space	3
 557              	.LC2:
 558 0018 31313132 		.ascii	"1112296 - EAA LAB 2 \012\000"
 558      32393620 
 558      2D204541 
 558      41204C41 
 558      42203220 
 559              		.text
 560              	.Letext0:
 561              		.file 7 "c:\\program files (x86)\\cypress\\psoc creator\\4.4\\psoc creator\\import\\gnu\\arm\\5.4.
 562              		.file 8 "c:\\program files (x86)\\cypress\\psoc creator\\4.4\\psoc creator\\import\\gnu\\arm\\5.4.
 563              		.file 9 "c:\\program files (x86)\\cypress\\psoc creator\\4.4\\psoc creator\\import\\gnu\\arm\\5.4.
 564              		.file 10 "Generated_Source\\PSoC5/ErikaOS_1_common_ee_types.inc"
 565              		.file 11 "Generated_Source\\PSoC5/ErikaOS_1_ee_oo_common.inc"
 566              		.file 12 ".\\Source\\bsw/global.h"
 567              		.file 13 ".\\Source\\rte/rte_types.h"
 568              		.file 14 ".\\Source\\bsw\\tft/tft.h"
 569              		.file 15 ".\\Source\\rte/rte.h"
 570              		.file 16 ".\\Source\\rte/sc_clock_type.h"
 571              		.file 17 "Generated_Source\\PSoC5/ErikaOS_1_ee_oo_intfunc.inc"
 572              		.file 18 "Generated_Source\\PSoC5/ErikaOS_1_cortex_mx_ee_context.inc"
 573              		.file 19 "Generated_Source\\PSoC5/ErikaOS_1_common_ee_primitives.inc"
 574              		.file 20 "Generated_Source\\PSoC5/core_cm3.h"
 575              		.file 21 ".\\Source\\rte/sp_common.h"
 576              		.file 22 "Generated_Source\\PSoC5/ErikaOS_1_ee_oo_kernel.inc"
 577              		.file 23 "Generated_Source\\PSoC5/ErikaOS_1_ee_oo_irq.inc"
 578              		.file 24 "Generated_Source\\PSoC5/ErikaOS_1_cortex_mx_ee_irq.inc"
 579              		.file 25 "Generated_Source\\PSoC5/UART_LOG.h"
ARM GAS  C:\Users\mau_g\AppData\Local\Temp\cc9UAEog.s 			page 31

