ARM GAS  C:\Users\mau_g\AppData\Local\Temp\ccjnQwP7.s 			page 1


   1              		.syntax unified
   2              		.cpu cortex-m3
   3              		.fpu softvfp
   4              		.eabi_attribute 20, 1
   5              		.eabi_attribute 21, 1
   6              		.eabi_attribute 23, 3
   7              		.eabi_attribute 24, 1
   8              		.eabi_attribute 25, 1
   9              		.eabi_attribute 26, 1
  10              		.eabi_attribute 30, 1
  11              		.eabi_attribute 34, 1
  12              		.eabi_attribute 18, 4
  13              		.thumb
  14              		.syntax unified
  15              		.file	"rte.c"
  16              		.text
  17              	.Ltext0:
  18              		.cfi_sections	.debug_frame
  19              		.section	.text.RTE_ProcessCyclicTable,"ax",%progbits
  20              		.align	2
  21              		.global	RTE_ProcessCyclicTable
  22              		.thumb
  23              		.thumb_func
  24              		.type	RTE_ProcessCyclicTable, %function
  25              	RTE_ProcessCyclicTable:
  26              	.LFB110:
  27              		.file 1 "Source\\rte\\rte.c"
   1:Source\rte/rte.c **** /**
   2:Source\rte/rte.c **** * \file rte.c
   3:Source\rte/rte.c **** * \author P. Fromm
   4:Source\rte/rte.c **** * \date 8.12.18
   5:Source\rte/rte.c **** *
   6:Source\rte/rte.c **** * \brief Runnable dispatcher
   7:Source\rte/rte.c **** *
   8:Source\rte/rte.c **** * \copyright Copyright ©2016
   9:Source\rte/rte.c **** * Department of electrical engineering and information technology, Hochschule Darmstadt - Universit
  10:Source\rte/rte.c **** * Permission to use, copy, modify, and distribute this software and its documentation for education
  11:Source\rte/rte.c **** * (unless permitted by h_da) and official h_da projects, is hereby granted for enrolled students of
  12:Source\rte/rte.c **** * this paragraph and the following paragraph appear in all copies, modifications, and distributions
  13:Source\rte/rte.c **** * Contact Prof.Dr.-Ing. Peter Fromm, peter.fromm@h-da.de, Birkenweg 8 64295 Darmstadt - GERMANY for
  14:Source\rte/rte.c **** *
  15:Source\rte/rte.c **** * \warning This software is a PROTOTYPE version and is not designed or intended for use in producti
  16:Source\rte/rte.c **** * The user represents and warrants that it will NOT use or redistribute the Software for such purpo
  17:Source\rte/rte.c **** * This prototype is for research purposes only. This software is provided "AS IS," without a warran
  18:Source\rte/rte.c **** */
  19:Source\rte/rte.c **** 
  20:Source\rte/rte.c **** /*****************************************************************************/
  21:Source\rte/rte.c **** /* Include files                                                             */
  22:Source\rte/rte.c **** /*****************************************************************************/
  23:Source\rte/rte.c **** #include "rte.h"
  24:Source\rte/rte.c **** 
  25:Source\rte/rte.c **** /*****************************************************************************/
  26:Source\rte/rte.c **** /* Local pre-processor symbols/macros ('#define')                            */
  27:Source\rte/rte.c **** /*****************************************************************************/
  28:Source\rte/rte.c **** 
  29:Source\rte/rte.c **** /*****************************************************************************/
  30:Source\rte/rte.c **** /* Global variable definitions (declared in header file with 'extern')       */
ARM GAS  C:\Users\mau_g\AppData\Local\Temp\ccjnQwP7.s 			page 2


  31:Source\rte/rte.c **** /*****************************************************************************/
  32:Source\rte/rte.c **** 
  33:Source\rte/rte.c **** /*****************************************************************************/
  34:Source\rte/rte.c **** /* Local type definitions ('typedef')                                        */
  35:Source\rte/rte.c **** /*****************************************************************************/
  36:Source\rte/rte.c **** 
  37:Source\rte/rte.c **** /*****************************************************************************/
  38:Source\rte/rte.c **** /* Local variable definitions ('static')                                     */
  39:Source\rte/rte.c **** /*****************************************************************************/
  40:Source\rte/rte.c **** 
  41:Source\rte/rte.c **** 
  42:Source\rte/rte.c **** 
  43:Source\rte/rte.c **** /*****************************************************************************/
  44:Source\rte/rte.c **** /* Local function prototypes ('static')                                      */
  45:Source\rte/rte.c **** /*****************************************************************************/
  46:Source\rte/rte.c **** 
  47:Source\rte/rte.c **** 
  48:Source\rte/rte.c **** /*****************************************************************************/
  49:Source\rte/rte.c **** /* Function implementation - global ('extern') and local ('static')          */
  50:Source\rte/rte.c **** /*****************************************************************************/
  51:Source\rte/rte.c **** 
  52:Source\rte/rte.c **** /**
  53:Source\rte/rte.c ****  * Will call all cyclic runnables when due
  54:Source\rte/rte.c ****  * \param RTE_cyclicTable_t const *const table : [IN] table to be processed
  55:Source\rte/rte.c ****  * \param uint16_t tableSize : [IN] table size
  56:Source\rte/rte.c ****  * \param uint32_t* time : [IN] ticktime elapsed since start in ms
  57:Source\rte/rte.c ****  * \return RC_SUCCESS if all ok, error code otherwise
  58:Source\rte/rte.c ****  */
  59:Source\rte/rte.c **** RC_t RTE_ProcessCyclicTable(RTE_cyclicTable_t const *const table, uint16_t tableSize, uint32_t time
  60:Source\rte/rte.c **** {
  28              		.loc 1 60 0
  29              		.cfi_startproc
  30              		@ args = 0, pretend = 0, frame = 0
  31              		@ frame_needed = 0, uses_anonymous_args = 0
  32              	.LVL0:
  33 0000 F8B5     		push	{r3, r4, r5, r6, r7, lr}
  34              		.cfi_def_cfa_offset 24
  35              		.cfi_offset 3, -24
  36              		.cfi_offset 4, -20
  37              		.cfi_offset 5, -16
  38              		.cfi_offset 6, -12
  39              		.cfi_offset 7, -8
  40              		.cfi_offset 14, -4
  41 0002 0646     		mov	r6, r0
  42 0004 0F46     		mov	r7, r1
  43 0006 1546     		mov	r5, r2
  44              	.LVL1:
  45              	.LBB2:
  61:Source\rte/rte.c ****     
  62:Source\rte/rte.c ****     for (uint16_t i = 0; i < tableSize; i++)
  46              		.loc 1 62 0
  47 0008 0024     		movs	r4, #0
  48 000a 0DE0     		b	.L2
  49              	.LVL2:
  50              	.L4:
  63:Source\rte/rte.c ****     {
  64:Source\rte/rte.c ****         if (0 == (time % table[i].cycleTime))
ARM GAS  C:\Users\mau_g\AppData\Local\Temp\ccjnQwP7.s 			page 3


  51              		.loc 1 64 0
  52 000c 06EBC403 		add	r3, r6, r4, lsl #3
  53 0010 9A88     		ldrh	r2, [r3, #4]
  54 0012 B5FBF2F3 		udiv	r3, r5, r2
  55 0016 02FB1353 		mls	r3, r2, r3, r5
  56 001a 1BB9     		cbnz	r3, .L3
  65:Source\rte/rte.c ****         {
  66:Source\rte/rte.c **** 			//No event information in this case
  67:Source\rte/rte.c ****             table[i].run(0);
  57              		.loc 1 67 0
  58 001c 56F83430 		ldr	r3, [r6, r4, lsl #3]
  59 0020 0020     		movs	r0, #0
  60 0022 9847     		blx	r3
  61              	.LVL3:
  62              	.L3:
  62:Source\rte/rte.c ****     {
  63              		.loc 1 62 0 discriminator 2
  64 0024 0134     		adds	r4, r4, #1
  65              	.LVL4:
  66 0026 A4B2     		uxth	r4, r4
  67              	.LVL5:
  68              	.L2:
  62:Source\rte/rte.c ****     {
  69              		.loc 1 62 0 is_stmt 0 discriminator 1
  70 0028 BC42     		cmp	r4, r7
  71 002a EFD3     		bcc	.L4
  72              	.LBE2:
  68:Source\rte/rte.c ****         }
  69:Source\rte/rte.c ****     }
  70:Source\rte/rte.c ****     
  71:Source\rte/rte.c **** }
  73              		.loc 1 71 0 is_stmt 1
  74 002c F8BD     		pop	{r3, r4, r5, r6, r7, pc}
  75              		.cfi_endproc
  76              	.LFE110:
  77              		.size	RTE_ProcessCyclicTable, .-RTE_ProcessCyclicTable
  78 002e 00BF     		.section	.text.RTE_ProcessEventTable,"ax",%progbits
  79              		.align	2
  80              		.global	RTE_ProcessEventTable
  81              		.thumb
  82              		.thumb_func
  83              		.type	RTE_ProcessEventTable, %function
  84              	RTE_ProcessEventTable:
  85              	.LFB111:
  72:Source\rte/rte.c ****     
  73:Source\rte/rte.c **** /**
  74:Source\rte/rte.c ****  * Will call all event runnables when due
  75:Source\rte/rte.c ****  * \param RTE_eventTable_t const *const table : [IN] table to be processed
  76:Source\rte/rte.c ****  * \param uint16_t tableSize : [IN] table size
  77:Source\rte/rte.c ****  * \param EventMaskType ev : [IN] event mask to be processed
  78:Source\rte/rte.c ****  * \return RC_SUCCESS if all ok, error code otherwise
  79:Source\rte/rte.c ****  */
  80:Source\rte/rte.c **** RC_t RTE_ProcessEventTable(RTE_eventTable_t const *const table, uint16_t tableSize, EventMaskType e
  81:Source\rte/rte.c **** {
  86              		.loc 1 81 0
  87              		.cfi_startproc
  88              		@ args = 0, pretend = 0, frame = 0
ARM GAS  C:\Users\mau_g\AppData\Local\Temp\ccjnQwP7.s 			page 4


  89              		@ frame_needed = 0, uses_anonymous_args = 0
  90              	.LVL6:
  91 0000 F8B5     		push	{r3, r4, r5, r6, r7, lr}
  92              		.cfi_def_cfa_offset 24
  93              		.cfi_offset 3, -24
  94              		.cfi_offset 4, -20
  95              		.cfi_offset 5, -16
  96              		.cfi_offset 6, -12
  97              		.cfi_offset 7, -8
  98              		.cfi_offset 14, -4
  99 0002 0546     		mov	r5, r0
 100 0004 0E46     		mov	r6, r1
 101 0006 1746     		mov	r7, r2
 102              	.LVL7:
 103              	.LBB3:
  82:Source\rte/rte.c ****     
  83:Source\rte/rte.c ****     for (uint16_t i = 0; i < tableSize; i++)
 104              		.loc 1 83 0
 105 0008 0024     		movs	r4, #0
 106 000a 09E0     		b	.L7
 107              	.LVL8:
 108              	.L9:
  84:Source\rte/rte.c ****     {
  85:Source\rte/rte.c ****         if (ev & table[i].event)
 109              		.loc 1 85 0
 110 000c 05EBC403 		add	r3, r5, r4, lsl #3
 111 0010 5868     		ldr	r0, [r3, #4]
 112 0012 3842     		tst	r0, r7
 113 0014 02D0     		beq	.L8
  86:Source\rte/rte.c ****         {
  87:Source\rte/rte.c **** 			//Fire activating event
  88:Source\rte/rte.c ****             table[i].run(table[i].event);
 114              		.loc 1 88 0
 115 0016 55F83430 		ldr	r3, [r5, r4, lsl #3]
 116 001a 9847     		blx	r3
 117              	.LVL9:
 118              	.L8:
  83:Source\rte/rte.c ****     {
 119              		.loc 1 83 0 discriminator 2
 120 001c 0134     		adds	r4, r4, #1
 121              	.LVL10:
 122 001e A4B2     		uxth	r4, r4
 123              	.LVL11:
 124              	.L7:
  83:Source\rte/rte.c ****     {
 125              		.loc 1 83 0 is_stmt 0 discriminator 1
 126 0020 B442     		cmp	r4, r6
 127 0022 F3D3     		bcc	.L9
 128              	.LBE3:
  89:Source\rte/rte.c ****         }
  90:Source\rte/rte.c ****     }
  91:Source\rte/rte.c ****     
  92:Source\rte/rte.c **** }...
 129              		.loc 1 92 0 is_stmt 1
 130 0024 F8BD     		pop	{r3, r4, r5, r6, r7, pc}
 131              		.cfi_endproc
 132              	.LFE111:
ARM GAS  C:\Users\mau_g\AppData\Local\Temp\ccjnQwP7.s 			page 5


 133              		.size	RTE_ProcessEventTable, .-RTE_ProcessEventTable
 134 0026 00BF     		.text
 135              	.Letext0:
 136              		.file 2 "c:\\program files (x86)\\cypress\\psoc creator\\4.4\\psoc creator\\import\\gnu\\arm\\5.4.
 137              		.file 3 "c:\\program files (x86)\\cypress\\psoc creator\\4.4\\psoc creator\\import\\gnu\\arm\\5.4.
 138              		.file 4 "Generated_Source\\PSoC5/ErikaOS_1_common_ee_types.inc"
 139              		.file 5 "Generated_Source\\PSoC5/ErikaOS_1_cortex_mx_ee_cpu.inc"
 140              		.file 6 "Generated_Source\\PSoC5/ErikaOS_1_ee_oo_common.inc"
 141              		.file 7 ".\\Source\\bsw/global.h"
 142              		.file 8 "Source\\rte\\rte_types.h"
 143              		.file 9 "Source\\rte\\rte.h"
 144              		.file 10 "Generated_Source\\PSoC5/ErikaOS_1_ee_oo_intfunc.inc"
 145              		.file 11 "Generated_Source\\PSoC5/ErikaOS_1_cortex_mx_ee_context.inc"
 146              		.file 12 "Generated_Source\\PSoC5/ErikaOS_1_common_ee_primitives.inc"
 147              		.file 13 "Generated_Source\\PSoC5/core_cm3.h"