ARM GAS  C:\Users\mau_g\AppData\Local\Temp\ccFeQBlf.s 			page 1


   1              		.syntax unified
   2              		.cpu cortex-m3
   3              		.fpu softvfp
   4              		.eabi_attribute 20, 1
   5              		.eabi_attribute 21, 1
   6              		.eabi_attribute 23, 3
   7              		.eabi_attribute 24, 1
   8              		.eabi_attribute 25, 1
   9              		.eabi_attribute 26, 1
  10              		.eabi_attribute 30, 1
  11              		.eabi_attribute 34, 1
  12              		.eabi_attribute 18, 4
  13              		.thumb
  14              		.syntax unified
  15              		.file	"sc_clock_type.c"
  16              		.text
  17              	.Ltext0:
  18              		.cfi_sections	.debug_frame
  19              		.section	.text.SC_CLOCK_driverOut,"ax",%progbits
  20              		.align	2
  21              		.global	SC_CLOCK_driverOut
  22              		.thumb
  23              		.thumb_func
  24              		.type	SC_CLOCK_driverOut, %function
  25              	SC_CLOCK_driverOut:
  26              	.LFB111:
  27              		.file 1 "Source\\rte\\sc_clock_type.c"
   1:Source\rte/sc_clock_type.c **** 
   2:Source\rte/sc_clock_type.c **** 
   3:Source\rte/sc_clock_type.c **** /*
   4:Source\rte/sc_clock_type.c ****  * Filename: sc_clock_type.c
   5:Source\rte/sc_clock_type.c ****  *
   6:Source\rte/sc_clock_type.c ****  * Author: Autogenerated by H-DA RTE Generator, (c) Prof. Fromm
   7:Source\rte/sc_clock_type.c ****  */
   8:Source\rte/sc_clock_type.c **** 
   9:Source\rte/sc_clock_type.c **** #include "project.h"
  10:Source\rte/sc_clock_type.c **** #include "global.h"
  11:Source\rte/sc_clock_type.c **** #include "rte.h"
  12:Source\rte/sc_clock_type.c **** #include "rte_types.h"
  13:Source\rte/sc_clock_type.c **** #include "sc_clock_type.h"
  14:Source\rte/sc_clock_type.c **** 
  15:Source\rte/sc_clock_type.c **** 
  16:Source\rte/sc_clock_type.c **** 
  17:Source\rte/sc_clock_type.c **** /* USER CODE START SC_CLOCK_INCLUDE */
  18:Source\rte/sc_clock_type.c **** 
  19:Source\rte/sc_clock_type.c **** /* USER CODE END SC_CLOCK_INCLUDE */
  20:Source\rte/sc_clock_type.c **** 
  21:Source\rte/sc_clock_type.c **** 
  22:Source\rte/sc_clock_type.c **** /*
  23:Source\rte/sc_clock_type.c **** * description: Signalclass for the clock including the hour and the minute widget
  24:Source\rte/sc_clock_type.c **** * name: sc_clock
  25:Source\rte/sc_clock_type.c **** * shortname: clock
  26:Source\rte/sc_clock_type.c **** */
  27:Source\rte/sc_clock_type.c **** 
  28:Source\rte/sc_clock_type.c **** /* USER CODE START SC_CLOCK_USERDEFINITIONS */
  29:Source\rte/sc_clock_type.c **** 
  30:Source\rte/sc_clock_type.c **** /* USER CODE END SC_CLOCK_USERDEFINITIONS */
ARM GAS  C:\Users\mau_g\AppData\Local\Temp\ccFeQBlf.s 			page 2


  31:Source\rte/sc_clock_type.c **** 
  32:Source\rte/sc_clock_type.c **** 
  33:Source\rte/sc_clock_type.c **** /*****************************************************************************************
  34:Source\rte/sc_clock_type.c ****  *************** Port Wrapper Implementation for SC_CLOCK signal  ****************
  35:Source\rte/sc_clock_type.c ****  *****************************************************************************************/
  36:Source\rte/sc_clock_type.c ****  
  37:Source\rte/sc_clock_type.c ****  
  38:Source\rte/sc_clock_type.c **** /**
  39:Source\rte/sc_clock_type.c ****  * Default OUT driver API
  40:Source\rte/sc_clock_type.c ****  */
  41:Source\rte/sc_clock_type.c **** inline RC_t SC_CLOCK_driverOut(const SC_CLOCK_data_t  *const data)
  42:Source\rte/sc_clock_type.c **** {
  28              		.loc 1 42 0
  29              		.cfi_startproc
  30              		@ args = 0, pretend = 0, frame = 8
  31              		@ frame_needed = 0, uses_anonymous_args = 0
  32              	.LVL0:
  33 0000 30B5     		push	{r4, r5, lr}
  34              		.cfi_def_cfa_offset 12
  35              		.cfi_offset 4, -12
  36              		.cfi_offset 5, -8
  37              		.cfi_offset 14, -4
  38 0002 85B0     		sub	sp, sp, #20
  39              		.cfi_def_cfa_offset 32
  40 0004 0446     		mov	r4, r0
  43:Source\rte/sc_clock_type.c **** 	/* USER CODE START driverOutSC_CLOCK */
  44:Source\rte/sc_clock_type.c **** //#error "Add your code here"
  45:Source\rte/sc_clock_type.c **** 
  46:Source\rte/sc_clock_type.c ****     if(TRUE == data->m_hours.m_fontEditing) 
  41              		.loc 1 46 0
  42 0006 0379     		ldrb	r3, [r0, #4]	@ zero_extendqisi2
  43 0008 012B     		cmp	r3, #1
  44 000a 0DD1     		bne	.L2
  47:Source\rte/sc_clock_type.c ****     {
  48:Source\rte/sc_clock_type.c ****         TFT_fillRect(8, 55, 45, 35, WHITE);
  45              		.loc 1 48 0
  46 000c 4FF6FF75 		movw	r5, #65535
  47 0010 0095     		str	r5, [sp]
  48 0012 2323     		movs	r3, #35
  49 0014 2D22     		movs	r2, #45
  50 0016 3721     		movs	r1, #55
  51 0018 0820     		movs	r0, #8
  52              	.LVL1:
  53 001a FFF7FEFF 		bl	TFT_fillRect
  54              	.LVL2:
  49:Source\rte/sc_clock_type.c ****         TFT_setColors(BLACK, WHITE);
  55              		.loc 1 49 0
  56 001e 2946     		mov	r1, r5
  57 0020 0020     		movs	r0, #0
  58 0022 FFF7FEFF 		bl	TFT_setColors
  59              	.LVL3:
  60 0026 0CE0     		b	.L3
  61              	.LVL4:
  62              	.L2:
  50:Source\rte/sc_clock_type.c ****     }
  51:Source\rte/sc_clock_type.c ****     else 
  52:Source\rte/sc_clock_type.c ****     {
ARM GAS  C:\Users\mau_g\AppData\Local\Temp\ccFeQBlf.s 			page 3


  53:Source\rte/sc_clock_type.c ****         TFT_fillRect(8, 55, 45, 35, BLACK);
  63              		.loc 1 53 0
  64 0028 0025     		movs	r5, #0
  65 002a 0095     		str	r5, [sp]
  66 002c 2323     		movs	r3, #35
  67 002e 2D22     		movs	r2, #45
  68 0030 3721     		movs	r1, #55
  69 0032 0820     		movs	r0, #8
  70              	.LVL5:
  71 0034 FFF7FEFF 		bl	TFT_fillRect
  72              	.LVL6:
  54:Source\rte/sc_clock_type.c ****         TFT_setColors(WHITE, BLACK);
  73              		.loc 1 54 0
  74 0038 2946     		mov	r1, r5
  75 003a 4FF6FF70 		movw	r0, #65535
  76 003e FFF7FEFF 		bl	TFT_setColors
  77              	.LVL7:
  78              	.L3:
  55:Source\rte/sc_clock_type.c ****     }
  56:Source\rte/sc_clock_type.c ****     
  57:Source\rte/sc_clock_type.c ****     TFT_setCursor(13, 60);
  79              		.loc 1 57 0
  80 0042 3C21     		movs	r1, #60
  81 0044 0D20     		movs	r0, #13
  82 0046 FFF7FEFF 		bl	TFT_setCursor
  83              	.LVL8:
  58:Source\rte/sc_clock_type.c ****     
  59:Source\rte/sc_clock_type.c ****     if(data->m_hours.m_currentValue < 10) 
  84              		.loc 1 59 0
  85 004a 6378     		ldrb	r3, [r4, #1]	@ zero_extendqisi2
  86 004c 092B     		cmp	r3, #9
  87 004e 02D8     		bhi	.L4
  60:Source\rte/sc_clock_type.c ****     { 
  61:Source\rte/sc_clock_type.c ****         TFT_print("0");
  88              		.loc 1 61 0
  89 0050 2448     		ldr	r0, .L9
  90 0052 FFF7FEFF 		bl	TFT_print
  91              	.LVL9:
  92              	.L4:
  62:Source\rte/sc_clock_type.c ****     }
  63:Source\rte/sc_clock_type.c ****     else
  64:Source\rte/sc_clock_type.c ****     {
  65:Source\rte/sc_clock_type.c ****         //Intended to do nothing.
  66:Source\rte/sc_clock_type.c ****     }
  67:Source\rte/sc_clock_type.c ****     
  68:Source\rte/sc_clock_type.c ****     char printHours[3];
  69:Source\rte/sc_clock_type.c ****     itoa(data->m_hours.m_currentValue, printHours, 10);
  93              		.loc 1 69 0
  94 0056 0A22     		movs	r2, #10
  95 0058 03A9     		add	r1, sp, #12
  96 005a 6078     		ldrb	r0, [r4, #1]	@ zero_extendqisi2
  97 005c FFF7FEFF 		bl	itoa
  98              	.LVL10:
  70:Source\rte/sc_clock_type.c ****     
  71:Source\rte/sc_clock_type.c ****     TFT_print(printHours);
  99              		.loc 1 71 0
 100 0060 03A8     		add	r0, sp, #12
ARM GAS  C:\Users\mau_g\AppData\Local\Temp\ccFeQBlf.s 			page 4


 101 0062 FFF7FEFF 		bl	TFT_print
 102              	.LVL11:
  72:Source\rte/sc_clock_type.c ****     
  73:Source\rte/sc_clock_type.c ****     
  74:Source\rte/sc_clock_type.c ****     TFT_setColors(WHITE, BLACK);
 103              		.loc 1 74 0
 104 0066 0021     		movs	r1, #0
 105 0068 4FF6FF70 		movw	r0, #65535
 106 006c FFF7FEFF 		bl	TFT_setColors
 107              	.LVL12:
  75:Source\rte/sc_clock_type.c ****     TFT_setCursor(56, 60);
 108              		.loc 1 75 0
 109 0070 3C21     		movs	r1, #60
 110 0072 3820     		movs	r0, #56
 111 0074 FFF7FEFF 		bl	TFT_setCursor
 112              	.LVL13:
  76:Source\rte/sc_clock_type.c ****     TFT_print(":");
 113              		.loc 1 76 0
 114 0078 1B48     		ldr	r0, .L9+4
 115 007a FFF7FEFF 		bl	TFT_print
 116              	.LVL14:
  77:Source\rte/sc_clock_type.c ****     
  78:Source\rte/sc_clock_type.c ****     
  79:Source\rte/sc_clock_type.c ****     if(TRUE == data->m_minutes.m_fontEditing) 
 117              		.loc 1 79 0
 118 007e 237A     		ldrb	r3, [r4, #8]	@ zero_extendqisi2
 119 0080 012B     		cmp	r3, #1
 120 0082 0DD1     		bne	.L5
  80:Source\rte/sc_clock_type.c ****     {
  81:Source\rte/sc_clock_type.c ****         TFT_fillRect(75, 55, 45, 35, WHITE);
 121              		.loc 1 81 0
 122 0084 4FF6FF75 		movw	r5, #65535
 123 0088 0095     		str	r5, [sp]
 124 008a 2323     		movs	r3, #35
 125 008c 2D22     		movs	r2, #45
 126 008e 3721     		movs	r1, #55
 127 0090 4B20     		movs	r0, #75
 128 0092 FFF7FEFF 		bl	TFT_fillRect
 129              	.LVL15:
  82:Source\rte/sc_clock_type.c ****         TFT_setColors(BLACK, WHITE);
 130              		.loc 1 82 0
 131 0096 2946     		mov	r1, r5
 132 0098 0020     		movs	r0, #0
 133 009a FFF7FEFF 		bl	TFT_setColors
 134              	.LVL16:
 135 009e 0CE0     		b	.L6
 136              	.L5:
  83:Source\rte/sc_clock_type.c ****     }
  84:Source\rte/sc_clock_type.c ****     else 
  85:Source\rte/sc_clock_type.c ****     {
  86:Source\rte/sc_clock_type.c ****         TFT_fillRect(75, 55, 45, 35, BLACK);
 137              		.loc 1 86 0
 138 00a0 0025     		movs	r5, #0
 139 00a2 0095     		str	r5, [sp]
 140 00a4 2323     		movs	r3, #35
 141 00a6 2D22     		movs	r2, #45
 142 00a8 3721     		movs	r1, #55
ARM GAS  C:\Users\mau_g\AppData\Local\Temp\ccFeQBlf.s 			page 5


 143 00aa 4B20     		movs	r0, #75
 144 00ac FFF7FEFF 		bl	TFT_fillRect
 145              	.LVL17:
  87:Source\rte/sc_clock_type.c ****         TFT_setColors(WHITE, BLACK);
 146              		.loc 1 87 0
 147 00b0 2946     		mov	r1, r5
 148 00b2 4FF6FF70 		movw	r0, #65535
 149 00b6 FFF7FEFF 		bl	TFT_setColors
 150              	.LVL18:
 151              	.L6:
  88:Source\rte/sc_clock_type.c ****     }
  89:Source\rte/sc_clock_type.c ****     
  90:Source\rte/sc_clock_type.c ****     TFT_setCursor(80, 60);
 152              		.loc 1 90 0
 153 00ba 3C21     		movs	r1, #60
 154 00bc 5020     		movs	r0, #80
 155 00be FFF7FEFF 		bl	TFT_setCursor
 156              	.LVL19:
  91:Source\rte/sc_clock_type.c ****     
  92:Source\rte/sc_clock_type.c ****     if(data->m_minutes.m_currentValue < 10) 
 157              		.loc 1 92 0
 158 00c2 6379     		ldrb	r3, [r4, #5]	@ zero_extendqisi2
 159 00c4 092B     		cmp	r3, #9
 160 00c6 02D8     		bhi	.L7
  93:Source\rte/sc_clock_type.c ****     { 
  94:Source\rte/sc_clock_type.c ****         TFT_print("0");
 161              		.loc 1 94 0
 162 00c8 0648     		ldr	r0, .L9
 163 00ca FFF7FEFF 		bl	TFT_print
 164              	.LVL20:
 165              	.L7:
  95:Source\rte/sc_clock_type.c ****     }
  96:Source\rte/sc_clock_type.c ****     else
  97:Source\rte/sc_clock_type.c ****     {
  98:Source\rte/sc_clock_type.c ****         //Intended to do nothing.
  99:Source\rte/sc_clock_type.c ****     }
 100:Source\rte/sc_clock_type.c ****     
 101:Source\rte/sc_clock_type.c ****     char printMinutes[3];
 102:Source\rte/sc_clock_type.c ****     itoa(data->m_minutes.m_currentValue, printMinutes, 10);
 166              		.loc 1 102 0
 167 00ce 0A22     		movs	r2, #10
 168 00d0 02A9     		add	r1, sp, #8
 169 00d2 6079     		ldrb	r0, [r4, #5]	@ zero_extendqisi2
 170 00d4 FFF7FEFF 		bl	itoa
 171              	.LVL21:
 103:Source\rte/sc_clock_type.c ****     
 104:Source\rte/sc_clock_type.c ****     TFT_print(printMinutes);
 172              		.loc 1 104 0
 173 00d8 02A8     		add	r0, sp, #8
 174 00da FFF7FEFF 		bl	TFT_print
 175              	.LVL22:
 105:Source\rte/sc_clock_type.c **** 
 106:Source\rte/sc_clock_type.c **** 	return RC_SUCCESS;
 107:Source\rte/sc_clock_type.c **** 	/* USER CODE END driverOutSC_CLOCK */
 108:Source\rte/sc_clock_type.c **** }
 176              		.loc 1 108 0
 177 00de 0020     		movs	r0, #0
ARM GAS  C:\Users\mau_g\AppData\Local\Temp\ccFeQBlf.s 			page 6


 178 00e0 05B0     		add	sp, sp, #20
 179              		.cfi_def_cfa_offset 12
 180              		@ sp needed
 181 00e2 30BD     		pop	{r4, r5, pc}
 182              	.LVL23:
 183              	.L10:
 184              		.align	2
 185              	.L9:
 186 00e4 00000000 		.word	.LC0
 187 00e8 04000000 		.word	.LC1
 188              		.cfi_endproc
 189              	.LFE111:
 190              		.size	SC_CLOCK_driverOut, .-SC_CLOCK_driverOut
 191              		.section	.rodata.str1.4,"aMS",%progbits,1
 192              		.align	2
 193              	.LC0:
 194 0000 3000     		.ascii	"0\000"
 195 0002 0000     		.space	2
 196              	.LC1:
 197 0004 3A00     		.ascii	":\000"
 198              		.text
 199              	.Letext0:
 200              		.file 2 "c:\\program files (x86)\\cypress\\psoc creator\\4.4\\psoc creator\\import\\gnu\\arm\\5.4.
 201              		.file 3 "c:\\program files (x86)\\cypress\\psoc creator\\4.4\\psoc creator\\import\\gnu\\arm\\5.4.
 202              		.file 4 "Generated_Source\\PSoC5/ErikaOS_1_common_ee_types.inc"
 203              		.file 5 "Generated_Source\\PSoC5/ErikaOS_1_cortex_mx_ee_cpu.inc"
 204              		.file 6 ".\\Source\\bsw/global.h"
 205              		.file 7 ".\\Source\\bsw\\tft/tft.h"
 206              		.file 8 "Source\\rte\\sc_clock_type.h"
 207              		.file 9 "Generated_Source\\PSoC5/ErikaOS_1_ee_oo_intfunc.inc"
 208              		.file 10 "Generated_Source\\PSoC5/ErikaOS_1_cortex_mx_ee_context.inc"
 209              		.file 11 "Generated_Source\\PSoC5/ErikaOS_1_common_ee_primitives.inc"
 210              		.file 12 "Generated_Source\\PSoC5/core_cm3.h"
 211              		.file 13 "c:\\program files (x86)\\cypress\\psoc creator\\4.4\\psoc creator\\import\\gnu\\arm\\5.4