ARM GAS  C:\Users\mau_g\AppData\Local\Temp\ccRRG0jp.s 			page 1


   1              		.syntax unified
   2              		.cpu cortex-m3
   3              		.fpu softvfp
   4              		.eabi_attribute 20, 1
   5              		.eabi_attribute 21, 1
   6              		.eabi_attribute 23, 3
   7              		.eabi_attribute 24, 1
   8              		.eabi_attribute 25, 1
   9              		.eabi_attribute 26, 1
  10              		.eabi_attribute 30, 1
  11              		.eabi_attribute 34, 1
  12              		.eabi_attribute 18, 4
  13              		.thumb
  14              		.syntax unified
  15              		.file	"statemachine.c"
  16              		.text
  17              	.Ltext0:
  18              		.cfi_sections	.debug_frame
  19              		.section	.text.STATE__getIndexCurrentState,"ax",%progbits
  20              		.align	2
  21              		.global	STATE__getIndexCurrentState
  22              		.thumb
  23              		.thumb_func
  24              		.type	STATE__getIndexCurrentState, %function
  25              	STATE__getIndexCurrentState:
  26              	.LFB117:
  27              		.file 1 "Source\\asw\\statemachine.c"
   1:Source\asw/statemachine.c **** /**
   2:Source\asw/statemachine.c **** * \file <filename>
   3:Source\asw/statemachine.c **** * \author <author-name>
   4:Source\asw/statemachine.c **** * \date <date>
   5:Source\asw/statemachine.c **** *
   6:Source\asw/statemachine.c **** * \brief <Symbolic File name>
   7:Source\asw/statemachine.c **** *
   8:Source\asw/statemachine.c **** * \copyright Copyright ©2016
   9:Source\asw/statemachine.c **** * Department of electrical engineering and information technology, Hochschule Darmstadt - Universit
  10:Source\asw/statemachine.c **** * Permission to use, copy, modify, and distribute this software and its documentation for education
  11:Source\asw/statemachine.c **** * (unless permitted by h_da) and official h_da projects, is hereby granted for enrolled students of
  12:Source\asw/statemachine.c **** * this paragraph and the following paragraph appear in all copies, modifications, and distributions
  13:Source\asw/statemachine.c **** * Contact Prof.Dr.-Ing. Peter Fromm, peter.fromm@h-da.de, Birkenweg 8 64295 Darmstadt - GERMANY for
  14:Source\asw/statemachine.c **** *
  15:Source\asw/statemachine.c **** * \warning This software is a PROTOTYPE version and is not designed or intended for use in producti
  16:Source\asw/statemachine.c **** * The user represents and warrants that it will NOT use or redistribute the Software for such purpo
  17:Source\asw/statemachine.c **** * This prototype is for research purposes only. This software is provided "AS IS," without a warran
  18:Source\asw/statemachine.c **** */
  19:Source\asw/statemachine.c **** 
  20:Source\asw/statemachine.c **** /*****************************************************************************/
  21:Source\asw/statemachine.c **** /* Include files                                                             */
  22:Source\asw/statemachine.c **** /*****************************************************************************/
  23:Source\asw/statemachine.c **** #include "statemachine.h"
  24:Source\asw/statemachine.c **** #include "logging.h"
  25:Source\asw/statemachine.c **** 
  26:Source\asw/statemachine.c **** /*****************************************************************************/
  27:Source\asw/statemachine.c **** /* Local pre-processor symbols/macros ('#define')                            */
  28:Source\asw/statemachine.c **** /*****************************************************************************/
  29:Source\asw/statemachine.c **** 
  30:Source\asw/statemachine.c **** /*****************************************************************************/
ARM GAS  C:\Users\mau_g\AppData\Local\Temp\ccRRG0jp.s 			page 2


  31:Source\asw/statemachine.c **** /* Global variable definitions (declared in header file with 'extern')       */
  32:Source\asw/statemachine.c **** /*****************************************************************************/
  33:Source\asw/statemachine.c **** 
  34:Source\asw/statemachine.c **** /*****************************************************************************/
  35:Source\asw/statemachine.c **** /* Local type definitions ('typedef')                                        */
  36:Source\asw/statemachine.c **** /*****************************************************************************/
  37:Source\asw/statemachine.c **** 
  38:Source\asw/statemachine.c **** /*****************************************************************************/
  39:Source\asw/statemachine.c **** /* Local variable definitions ('static')                                     */
  40:Source\asw/statemachine.c **** /*****************************************************************************/
  41:Source\asw/statemachine.c **** 
  42:Source\asw/statemachine.c **** 
  43:Source\asw/statemachine.c **** 
  44:Source\asw/statemachine.c **** /*****************************************************************************/
  45:Source\asw/statemachine.c **** /* Local function prototypes ('static')                                      */
  46:Source\asw/statemachine.c **** /*****************************************************************************/
  47:Source\asw/statemachine.c **** 
  48:Source\asw/statemachine.c **** 
  49:Source\asw/statemachine.c **** /*****************************************************************************/
  50:Source\asw/statemachine.c **** /* Function implementation - global ('extern') and local ('static')          */
  51:Source\asw/statemachine.c **** /*****************************************************************************/
  52:Source\asw/statemachine.c **** 
  53:Source\asw/statemachine.c **** #define INVALIDINDEX -1
  54:Source\asw/statemachine.c **** 
  55:Source\asw/statemachine.c **** /** return the index of the provided state in the given table 
  56:Source\asw/statemachine.c ****  **/
  57:Source\asw/statemachine.c **** sint16_t STATE__getIndexCurrentState(STATE_t * const me)
  58:Source\asw/statemachine.c **** {
  28              		.loc 1 58 0
  29              		.cfi_startproc
  30              		@ args = 0, pretend = 0, frame = 0
  31              		@ frame_needed = 0, uses_anonymous_args = 0
  32              		@ link register save eliminated.
  33              	.LVL0:
  34 0000 10B4     		push	{r4}
  35              		.cfi_def_cfa_offset 4
  36              		.cfi_offset 4, -4
  37              	.LVL1:
  38              	.LBB2:
  59:Source\asw/statemachine.c ****     
  60:Source\asw/statemachine.c ****     sint16_t result = INVALIDINDEX; //error
  61:Source\asw/statemachine.c ****     
  62:Source\asw/statemachine.c ****     for (uint16_t i = 0; i < me->m_transitionTableSize; i++)
  39              		.loc 1 62 0
  40 0002 0023     		movs	r3, #0
  41 0004 0BE0     		b	.L2
  42              	.LVL2:
  43              	.L5:
  63:Source\asw/statemachine.c ****     {
  64:Source\asw/statemachine.c ****         if ((*me->m_transitionTable)[i].fromState == me->m_state)
  44              		.loc 1 64 0
  45 0006 0468     		ldr	r4, [r0]
  46 0008 03EB4301 		add	r1, r3, r3, lsl #1
  47 000c 8A00     		lsls	r2, r1, #2
  48 000e A15A     		ldrh	r1, [r4, r2]
  49 0010 C289     		ldrh	r2, [r0, #14]
  50 0012 9142     		cmp	r1, r2
ARM GAS  C:\Users\mau_g\AppData\Local\Temp\ccRRG0jp.s 			page 3


  51 0014 01D1     		bne	.L3
  65:Source\asw/statemachine.c ****         {
  66:Source\asw/statemachine.c ****             return i;
  52              		.loc 1 66 0
  53 0016 18B2     		sxth	r0, r3
  54              	.LVL3:
  55 0018 06E0     		b	.L4
  56              	.LVL4:
  57              	.L3:
  62:Source\asw/statemachine.c ****     {
  58              		.loc 1 62 0 discriminator 2
  59 001a 0133     		adds	r3, r3, #1
  60              	.LVL5:
  61 001c 9BB2     		uxth	r3, r3
  62              	.LVL6:
  63              	.L2:
  62:Source\asw/statemachine.c ****     {
  64              		.loc 1 62 0 is_stmt 0 discriminator 1
  65 001e 8288     		ldrh	r2, [r0, #4]
  66 0020 9342     		cmp	r3, r2
  67 0022 F0D3     		bcc	.L5
  68              	.LBE2:
  67:Source\asw/statemachine.c ****         }
  68:Source\asw/statemachine.c ****     }
  69:Source\asw/statemachine.c ****     
  70:Source\asw/statemachine.c ****     return INVALIDINDEX;
  69              		.loc 1 70 0 is_stmt 1
  70 0024 4FF0FF30 		mov	r0, #-1
  71              	.LVL7:
  72              	.L4:
  71:Source\asw/statemachine.c **** }
  73              		.loc 1 71 0
  74 0028 10BC     		pop	{r4}
  75              		.cfi_restore 4
  76              		.cfi_def_cfa_offset 0
  77 002a 7047     		bx	lr
  78              		.cfi_endproc
  79              	.LFE117:
  80              		.size	STATE__getIndexCurrentState, .-STATE__getIndexCurrentState
  81              		.section	.text.STATE_initState,"ax",%progbits
  82              		.align	2
  83              		.global	STATE_initState
  84              		.thumb
  85              		.thumb_func
  86              		.type	STATE_initState, %function
  87              	STATE_initState:
  88              	.LFB118:
  72:Source\asw/statemachine.c **** 
  73:Source\asw/statemachine.c **** /**
  74:Source\asw/statemachine.c ****  * This function will initialise the state machine and process any state actions of the initial sta
  75:Source\asw/statemachine.c ****  * The state machine is implemented as a generic object, Several instances and configurations are s
  76:Source\asw/statemachine.c ****  * \param STATE_t * const me            : IN - Pointer to the state machine object
  77:Source\asw/statemachine.c ****  * \return RC_SUCCESS or error
  78:Source\asw/statemachine.c ****  */
  79:Source\asw/statemachine.c **** RC_t STATE_initState(STATE_t * const me)
  80:Source\asw/statemachine.c **** {
  89              		.loc 1 80 0
ARM GAS  C:\Users\mau_g\AppData\Local\Temp\ccRRG0jp.s 			page 4


  90              		.cfi_startproc
  91              		@ args = 0, pretend = 0, frame = 0
  92              		@ frame_needed = 0, uses_anonymous_args = 0
  93              	.LVL8:
  94 0000 38B5     		push	{r3, r4, r5, lr}
  95              		.cfi_def_cfa_offset 16
  96              		.cfi_offset 3, -16
  97              		.cfi_offset 4, -12
  98              		.cfi_offset 5, -8
  99              		.cfi_offset 14, -4
 100              	.LVL9:
  81:Source\asw/statemachine.c ****     
  82:Source\asw/statemachine.c ****     STATE_ActionPtr_t acEntry = 0;
  83:Source\asw/statemachine.c ****     
  84:Source\asw/statemachine.c ****     me->m_state = 0;
 101              		.loc 1 84 0
 102 0002 0023     		movs	r3, #0
 103 0004 C381     		strh	r3, [r0, #14]	@ movhi
  85:Source\asw/statemachine.c ****     
  86:Source\asw/statemachine.c ****     //Check if entry actios are present in the init state
  87:Source\asw/statemachine.c ****     if (0 != me->m_actionTable)
 104              		.loc 1 87 0
 105 0006 8368     		ldr	r3, [r0, #8]
 106 0008 83B9     		cbnz	r3, .L12
 107              	.LBB3:
 108 000a 38BD     		pop	{r3, r4, r5, pc}
 109              	.LVL10:
 110              	.L11:
  88:Source\asw/statemachine.c ****     {
  89:Source\asw/statemachine.c ****         for (uint16_t j = 0; j < me->m_actionTableSize; j++)
  90:Source\asw/statemachine.c ****         {
  91:Source\asw/statemachine.c **** 
  92:Source\asw/statemachine.c ****             if (0 == (*me->m_actionTable)[j].state)
 111              		.loc 1 92 0
 112 000c A968     		ldr	r1, [r5, #8]
 113 000e 04EB4402 		add	r2, r4, r4, lsl #1
 114 0012 9300     		lsls	r3, r2, #2
 115 0014 CB5A     		ldrh	r3, [r1, r3]
 116 0016 33B9     		cbnz	r3, .L10
  93:Source\asw/statemachine.c ****             {
  94:Source\asw/statemachine.c ****                 acEntry = (*me->m_actionTable)[j].actionEntry;
 117              		.loc 1 94 0
 118 0018 04EB4402 		add	r2, r4, r4, lsl #1
 119 001c 9300     		lsls	r3, r2, #2
 120 001e 0B44     		add	r3, r3, r1
 121 0020 5B68     		ldr	r3, [r3, #4]
 122              	.LVL11:
  95:Source\asw/statemachine.c ****                 if (0 != acEntry) acEntry();
 123              		.loc 1 95 0
 124 0022 03B1     		cbz	r3, .L10
 125              		.loc 1 95 0 is_stmt 0 discriminator 1
 126 0024 9847     		blx	r3
 127              	.LVL12:
 128              	.L10:
  89:Source\asw/statemachine.c ****         {
 129              		.loc 1 89 0 is_stmt 1 discriminator 2
 130 0026 0134     		adds	r4, r4, #1
ARM GAS  C:\Users\mau_g\AppData\Local\Temp\ccRRG0jp.s 			page 5


 131              	.LVL13:
 132 0028 A4B2     		uxth	r4, r4
 133              	.LVL14:
 134 002a 01E0     		b	.L8
 135              	.LVL15:
 136              	.L12:
 137 002c 0546     		mov	r5, r0
 138              	.LBE3:
 139 002e 0024     		movs	r4, #0
 140              	.LVL16:
 141              	.L8:
 142              	.LBB4:
  89:Source\asw/statemachine.c ****         {
 143              		.loc 1 89 0 is_stmt 0 discriminator 1
 144 0030 AB89     		ldrh	r3, [r5, #12]
 145 0032 9C42     		cmp	r4, r3
 146 0034 EAD3     		bcc	.L11
 147              	.LBE4:
  96:Source\asw/statemachine.c ****             }
  97:Source\asw/statemachine.c ****         }
  98:Source\asw/statemachine.c ****     }
  99:Source\asw/statemachine.c ****     
 100:Source\asw/statemachine.c **** }
 148              		.loc 1 100 0 is_stmt 1
 149 0036 38BD     		pop	{r3, r4, r5, pc}
 150              		.cfi_endproc
 151              	.LFE118:
 152              		.size	STATE_initState, .-STATE_initState
 153              		.section	.text.STATE_processEvent,"ax",%progbits
 154              		.align	2
 155              		.global	STATE_processEvent
 156              		.thumb
 157              		.thumb_func
 158              		.type	STATE_processEvent, %function
 159              	STATE_processEvent:
 160              	.LFB119:
 101:Source\asw/statemachine.c **** 
 102:Source\asw/statemachine.c **** /**
 103:Source\asw/statemachine.c ****  * This function will process the event with the defined state machine
 104:Source\asw/statemachine.c ****  * The state machine is implemented as a generic object, Several instances and configurations are s
 105:Source\asw/statemachine.c ****  * \param STATE_t * const me            : IN/OUT - Pointer to the state machine object
 106:Source\asw/statemachine.c ****  * \param uint16_t      ev              : IN - Event to be processed
 107:Source\asw/statemachine.c ****  * \return RC_SUCCESS or error
 108:Source\asw/statemachine.c ****  */
 109:Source\asw/statemachine.c **** RC_t STATE_processEvent(STATE_t * const me,
 110:Source\asw/statemachine.c ****                         uint16_t ev)
 111:Source\asw/statemachine.c **** {
 161              		.loc 1 111 0
 162              		.cfi_startproc
 163              		@ args = 0, pretend = 0, frame = 0
 164              		@ frame_needed = 0, uses_anonymous_args = 0
 165              	.LVL17:
 166 0000 2DE9F047 		push	{r4, r5, r6, r7, r8, r9, r10, lr}
 167              		.cfi_def_cfa_offset 32
 168              		.cfi_offset 4, -32
 169              		.cfi_offset 5, -28
 170              		.cfi_offset 6, -24
ARM GAS  C:\Users\mau_g\AppData\Local\Temp\ccRRG0jp.s 			page 6


 171              		.cfi_offset 7, -20
 172              		.cfi_offset 8, -16
 173              		.cfi_offset 9, -12
 174              		.cfi_offset 10, -8
 175              		.cfi_offset 14, -4
 176 0004 8146     		mov	r9, r0
 177 0006 8846     		mov	r8, r1
 178              	.LVL18:
 112:Source\asw/statemachine.c ****     STATE_GuardPtr_t guard = 0;
 113:Source\asw/statemachine.c ****     STATE_ActionPtr_t acTransition = 0;
 114:Source\asw/statemachine.c ****     STATE_ActionPtr_t acEntry = 0;
 115:Source\asw/statemachine.c ****     STATE_ActionPtr_t acExit = 0;
 116:Source\asw/statemachine.c ****     
 117:Source\asw/statemachine.c ****     
 118:Source\asw/statemachine.c ****     //Read the state from the watchdog object;
 119:Source\asw/statemachine.c ****     uint16_t currentState = me->m_state;
 179              		.loc 1 119 0
 180 0008 B0F80EA0 		ldrh	r10, [r0, #14]
 181              	.LVL19:
 120:Source\asw/statemachine.c ****     uint16_t toState = currentState; //Just in case
 121:Source\asw/statemachine.c ****     
 122:Source\asw/statemachine.c ****     //Calculate the table index of the outer table
 123:Source\asw/statemachine.c **** 
 124:Source\asw/statemachine.c ****     sint16_t index = STATE__getIndexCurrentState(me);
 182              		.loc 1 124 0
 183 000c FFF7FEFF 		bl	STATE__getIndexCurrentState
 184              	.LVL20:
 125:Source\asw/statemachine.c ****     
 126:Source\asw/statemachine.c ****     //This should never happen
 127:Source\asw/statemachine.c ****     if (INVALIDINDEX == index)
 185              		.loc 1 127 0
 186 0010 B0F1FF3F 		cmp	r0, #-1
 187 0014 6FD0     		beq	.L30
 128:Source\asw/statemachine.c ****     {
 129:Source\asw/statemachine.c ****         return RC_ERROR_BAD_PARAM;
 130:Source\asw/statemachine.c ****     }
 131:Source\asw/statemachine.c ****     
 132:Source\asw/statemachine.c ****     STATE_stateInnerTransitionTable_t const* const pInnerTable = (*me->m_transitionTable)[index].pI
 188              		.loc 1 132 0
 189 0016 D9F80010 		ldr	r1, [r9]
 190 001a 00EB4002 		add	r2, r0, r0, lsl #1
 191 001e 9300     		lsls	r3, r2, #2
 192 0020 1A46     		mov	r2, r3
 193 0022 0B44     		add	r3, r3, r1
 194 0024 5D68     		ldr	r5, [r3, #4]
 195              	.LVL21:
 133:Source\asw/statemachine.c **** 	
 134:Source\asw/statemachine.c ****     uint16_t innerTableSize = 0;
 135:Source\asw/statemachine.c **** 	if (0 != pInnerTable)
 196              		.loc 1 135 0
 197 0026 1DB1     		cbz	r5, .L31
 136:Source\asw/statemachine.c **** 	{
 137:Source\asw/statemachine.c **** 		innerTableSize = (*me->m_transitionTable)[index].size;
 198              		.loc 1 137 0
 199 0028 1346     		mov	r3, r2
 200 002a 0B44     		add	r3, r3, r1
 201 002c 1E89     		ldrh	r6, [r3, #8]
ARM GAS  C:\Users\mau_g\AppData\Local\Temp\ccRRG0jp.s 			page 7


 202              	.LVL22:
 203 002e 00E0     		b	.L16
 204              	.LVL23:
 205              	.L31:
 134:Source\asw/statemachine.c **** 	if (0 != pInnerTable)
 206              		.loc 1 134 0
 207 0030 0026     		movs	r6, #0
 208              	.LVL24:
 209              	.L16:
 138:Source\asw/statemachine.c **** 	}
 139:Source\asw/statemachine.c ****     
 140:Source\asw/statemachine.c ****     if (0 == pInnerTable || 0 == innerTableSize)
 210              		.loc 1 140 0
 211 0032 002D     		cmp	r5, #0
 212 0034 63D0     		beq	.L32
 213              		.loc 1 140 0 is_stmt 0 discriminator 1
 214 0036 002E     		cmp	r6, #0
 215 0038 65D0     		beq	.L33
 216 003a 0024     		movs	r4, #0
 217 003c 56E0     		b	.L17
 218              	.LVL25:
 219              	.L29:
 220              	.LBB5:
 141:Source\asw/statemachine.c ****     {
 142:Source\asw/statemachine.c ****         //No transitions in this state
 143:Source\asw/statemachine.c ****         return RC_ERROR_INVALID_STATE;
 144:Source\asw/statemachine.c ****     }
 145:Source\asw/statemachine.c ****     
 146:Source\asw/statemachine.c ****     //Iterate through the inner table and find correct transition
 147:Source\asw/statemachine.c ****     for (uint16_t i = 0; i < innerTableSize; i++)
 148:Source\asw/statemachine.c ****     {
 149:Source\asw/statemachine.c ****         if ((*pInnerTable)[i].event == ev)
 221              		.loc 1 149 0 is_stmt 1
 222 003e 2746     		mov	r7, r4
 223 0040 04EB4402 		add	r2, r4, r4, lsl #1
 224 0044 9300     		lsls	r3, r2, #2
 225 0046 EB5A     		ldrh	r3, [r5, r3]
 226 0048 4345     		cmp	r3, r8
 227 004a 4DD1     		bne	.L18
 150:Source\asw/statemachine.c ****         {
 151:Source\asw/statemachine.c ****             //Transition found, let's check the guard
 152:Source\asw/statemachine.c ****             guard = (*pInnerTable)[i].guard;
 228              		.loc 1 152 0
 229 004c 04EB4402 		add	r2, r4, r4, lsl #1
 230 0050 9300     		lsls	r3, r2, #2
 231 0052 2B44     		add	r3, r3, r5
 232 0054 5B68     		ldr	r3, [r3, #4]
 233              	.LVL26:
 153:Source\asw/statemachine.c ****             if (0 == guard || TRUE == guard())
 234              		.loc 1 153 0
 235 0056 13B1     		cbz	r3, .L19
 236              		.loc 1 153 0 is_stmt 0 discriminator 1
 237 0058 9847     		blx	r3
 238              	.LVL27:
 239 005a 0128     		cmp	r0, #1
 240 005c 44D1     		bne	.L18
 241              	.L19:
ARM GAS  C:\Users\mau_g\AppData\Local\Temp\ccRRG0jp.s 			page 8


 154:Source\asw/statemachine.c ****             {
 155:Source\asw/statemachine.c ****                 //Transition is valid
 156:Source\asw/statemachine.c ****                 acTransition = (*pInnerTable)[i].actionTransition;
 242              		.loc 1 156 0 is_stmt 1
 243 005e 7A00     		lsls	r2, r7, #1
 244 0060 D119     		adds	r1, r2, r7
 245 0062 8B00     		lsls	r3, r1, #2
 246 0064 1946     		mov	r1, r3
 247 0066 2B44     		add	r3, r3, r5
 248 0068 9E68     		ldr	r6, [r3, #8]
 249              	.LVL28:
 157:Source\asw/statemachine.c ****                 toState = (*pInnerTable)[i].toState;
 250              		.loc 1 157 0
 251 006a 0D44     		add	r5, r5, r1
 252              	.LVL29:
 253 006c 6D88     		ldrh	r5, [r5, #2]
 254              	.LVL30:
 158:Source\asw/statemachine.c ****                 
 159:Source\asw/statemachine.c ****                 //Now lets find exit actions. Note: their might be more than one
 160:Source\asw/statemachine.c ****                 if (0 != me->m_actionTable)
 255              		.loc 1 160 0
 256 006e D9F80830 		ldr	r3, [r9, #8]
 257 0072 93B9     		cbnz	r3, .L34
 258              	.LBB6:
 259 0074 16E0     		b	.L21
 260              	.LVL31:
 261              	.L23:
 161:Source\asw/statemachine.c ****                 {
 162:Source\asw/statemachine.c ****                     for (uint16_t j = 0; j < me->m_actionTableSize; j++)
 163:Source\asw/statemachine.c ****                     {
 164:Source\asw/statemachine.c ****                         if (currentState == (*me->m_actionTable)[j].state)
 262              		.loc 1 164 0
 263 0076 D9F80810 		ldr	r1, [r9, #8]
 264 007a 04EB4402 		add	r2, r4, r4, lsl #1
 265 007e 9300     		lsls	r3, r2, #2
 266 0080 CB5A     		ldrh	r3, [r1, r3]
 267 0082 9A45     		cmp	r10, r3
 268 0084 06D1     		bne	.L22
 165:Source\asw/statemachine.c ****                         {
 166:Source\asw/statemachine.c ****                             acExit = (*me->m_actionTable)[j].actionExit;
 269              		.loc 1 166 0
 270 0086 04EB4402 		add	r2, r4, r4, lsl #1
 271 008a 9300     		lsls	r3, r2, #2
 272 008c 1944     		add	r1, r1, r3
 273 008e 8B68     		ldr	r3, [r1, #8]
 274              	.LVL32:
 167:Source\asw/statemachine.c ****                             if (0 != acExit) acExit();
 275              		.loc 1 167 0
 276 0090 03B1     		cbz	r3, .L22
 277              		.loc 1 167 0 is_stmt 0 discriminator 1
 278 0092 9847     		blx	r3
 279              	.LVL33:
 280              	.L22:
 162:Source\asw/statemachine.c ****                     {
 281              		.loc 1 162 0 is_stmt 1 discriminator 2
 282 0094 0134     		adds	r4, r4, #1
 283              	.LVL34:
ARM GAS  C:\Users\mau_g\AppData\Local\Temp\ccRRG0jp.s 			page 9


 284 0096 A4B2     		uxth	r4, r4
 285              	.LVL35:
 286 0098 00E0     		b	.L20
 287              	.LVL36:
 288              	.L34:
 289              	.LBE6:
 290 009a 0024     		movs	r4, #0
 291              	.LVL37:
 292              	.L20:
 293              	.LBB7:
 162:Source\asw/statemachine.c ****                     {
 294              		.loc 1 162 0 is_stmt 0 discriminator 1
 295 009c B9F80C30 		ldrh	r3, [r9, #12]
 296 00a0 9C42     		cmp	r4, r3
 297 00a2 E8D3     		bcc	.L23
 298              	.LVL38:
 299              	.L21:
 300              	.LBE7:
 168:Source\asw/statemachine.c ****                         }
 169:Source\asw/statemachine.c ****                     }
 170:Source\asw/statemachine.c ****                 }
 171:Source\asw/statemachine.c **** 
 172:Source\asw/statemachine.c ****                 //Lets call the transition action
 173:Source\asw/statemachine.c ****                 if (0 != acTransition) acTransition();
 301              		.loc 1 173 0 is_stmt 1
 302 00a4 06B1     		cbz	r6, .L24
 303              		.loc 1 173 0 is_stmt 0 discriminator 1
 304 00a6 B047     		blx	r6
 305              	.LVL39:
 306              	.L24:
 174:Source\asw/statemachine.c ****                 
 175:Source\asw/statemachine.c ****                 //Now lets find the entry actions. Note: their might be more than one
 176:Source\asw/statemachine.c ****                 if (0 != me->m_actionTable)
 307              		.loc 1 176 0 is_stmt 1
 308 00a8 D9F80830 		ldr	r3, [r9, #8]
 309 00ac 93B9     		cbnz	r3, .L35
 310              	.LBB8:
 311 00ae 16E0     		b	.L26
 312              	.LVL40:
 313              	.L28:
 177:Source\asw/statemachine.c ****                 {
 178:Source\asw/statemachine.c ****                     for (uint16_t j = 0; j < me->m_actionTableSize; j++)
 179:Source\asw/statemachine.c ****                     {
 180:Source\asw/statemachine.c **** 
 181:Source\asw/statemachine.c ****                         if (toState == (*me->m_actionTable)[j].state)
 314              		.loc 1 181 0
 315 00b0 D9F80810 		ldr	r1, [r9, #8]
 316 00b4 04EB4402 		add	r2, r4, r4, lsl #1
 317 00b8 9300     		lsls	r3, r2, #2
 318 00ba CB5A     		ldrh	r3, [r1, r3]
 319 00bc 9D42     		cmp	r5, r3
 320 00be 06D1     		bne	.L27
 182:Source\asw/statemachine.c ****                         {
 183:Source\asw/statemachine.c ****                             acEntry = (*me->m_actionTable)[j].actionEntry;
 321              		.loc 1 183 0
 322 00c0 04EB4402 		add	r2, r4, r4, lsl #1
 323 00c4 9300     		lsls	r3, r2, #2
ARM GAS  C:\Users\mau_g\AppData\Local\Temp\ccRRG0jp.s 			page 10


 324 00c6 1944     		add	r1, r1, r3
 325 00c8 4B68     		ldr	r3, [r1, #4]
 326              	.LVL41:
 184:Source\asw/statemachine.c ****                             if (0 != acEntry) acEntry();
 327              		.loc 1 184 0
 328 00ca 03B1     		cbz	r3, .L27
 329              		.loc 1 184 0 is_stmt 0 discriminator 1
 330 00cc 9847     		blx	r3
 331              	.LVL42:
 332              	.L27:
 178:Source\asw/statemachine.c ****                     {
 333              		.loc 1 178 0 is_stmt 1 discriminator 2
 334 00ce 0134     		adds	r4, r4, #1
 335              	.LVL43:
 336 00d0 A4B2     		uxth	r4, r4
 337              	.LVL44:
 338 00d2 00E0     		b	.L25
 339              	.LVL45:
 340              	.L35:
 341              	.LBE8:
 342 00d4 0024     		movs	r4, #0
 343              	.LVL46:
 344              	.L25:
 345              	.LBB9:
 178:Source\asw/statemachine.c ****                     {
 346              		.loc 1 178 0 is_stmt 0 discriminator 1
 347 00d6 B9F80C30 		ldrh	r3, [r9, #12]
 348 00da 9C42     		cmp	r4, r3
 349 00dc E8D3     		bcc	.L28
 350              	.LVL47:
 351              	.L26:
 352              	.LBE9:
 185:Source\asw/statemachine.c ****                         }
 186:Source\asw/statemachine.c ****                     }
 187:Source\asw/statemachine.c ****                 }
 188:Source\asw/statemachine.c ****                 
 189:Source\asw/statemachine.c ****                 me->m_state = toState;
 353              		.loc 1 189 0 is_stmt 1
 354 00de A9F80E50 		strh	r5, [r9, #14]	@ movhi
 355              	.LBE5:
 190:Source\asw/statemachine.c ****                 
 191:Source\asw/statemachine.c ****                 //Only one transition will be fired
 192:Source\asw/statemachine.c ****                 break;
 193:Source\asw/statemachine.c ****             }
 194:Source\asw/statemachine.c ****         }
 195:Source\asw/statemachine.c ****     }
 196:Source\asw/statemachine.c **** 
 197:Source\asw/statemachine.c ****     return RC_SUCCESS;
 356              		.loc 1 197 0
 357 00e2 0020     		movs	r0, #0
 358              	.LBB10:
 192:Source\asw/statemachine.c ****             }
 359              		.loc 1 192 0
 360 00e4 BDE8F087 		pop	{r4, r5, r6, r7, r8, r9, r10, pc}
 361              	.LVL48:
 362              	.L18:
 147:Source\asw/statemachine.c ****     {
ARM GAS  C:\Users\mau_g\AppData\Local\Temp\ccRRG0jp.s 			page 11


 363              		.loc 1 147 0 discriminator 2
 364 00e8 0134     		adds	r4, r4, #1
 365              	.LVL49:
 366 00ea A4B2     		uxth	r4, r4
 367              	.LVL50:
 368              	.L17:
 147:Source\asw/statemachine.c ****     {
 369              		.loc 1 147 0 is_stmt 0 discriminator 1
 370 00ec A642     		cmp	r6, r4
 371 00ee A6D8     		bhi	.L29
 372              	.LBE10:
 373              		.loc 1 197 0 is_stmt 1
 374 00f0 0020     		movs	r0, #0
 375              	.LBB11:
 376 00f2 BDE8F087 		pop	{r4, r5, r6, r7, r8, r9, r10, pc}
 377              	.LVL51:
 378              	.L30:
 379              	.LBE11:
 129:Source\asw/statemachine.c ****     }
 380              		.loc 1 129 0
 381 00f6 6FF01300 		mvn	r0, #19
 382              	.LVL52:
 383 00fa BDE8F087 		pop	{r4, r5, r6, r7, r8, r9, r10, pc}
 384              	.LVL53:
 385              	.L32:
 143:Source\asw/statemachine.c ****     }
 386              		.loc 1 143 0
 387 00fe 6FF01600 		mvn	r0, #22
 388              	.LVL54:
 389 0102 BDE8F087 		pop	{r4, r5, r6, r7, r8, r9, r10, pc}
 390              	.LVL55:
 391              	.L33:
 392 0106 6FF01600 		mvn	r0, #22
 393              	.LVL56:
 198:Source\asw/statemachine.c **** }
 394              		.loc 1 198 0
 395 010a BDE8F087 		pop	{r4, r5, r6, r7, r8, r9, r10, pc}
 396              		.cfi_endproc
 397              	.LFE119:
 398              		.size	STATE_processEvent, .-STATE_processEvent
 399 010e 00BF     		.section	.text.STATE_getCurrentState,"ax",%progbits
 400              		.align	2
 401              		.global	STATE_getCurrentState
 402              		.thumb
 403              		.thumb_func
 404              		.type	STATE_getCurrentState, %function
 405              	STATE_getCurrentState:
 406              	.LFB120:
 199:Source\asw/statemachine.c **** 
 200:Source\asw/statemachine.c **** 
 201:Source\asw/statemachine.c **** /**
 202:Source\asw/statemachine.c ****  * This function will return the current state in case it is required for additional application lo
 203:Source\asw/statemachine.c ****  * \param STATE_t * const me            : IN - Pointer to the state machine object
 204:Source\asw/statemachine.c ****  * \return Current State of the State machine
 205:Source\asw/statemachine.c ****  */
 206:Source\asw/statemachine.c **** uint16_t STATE_getCurrentState(STATE_t * const me)
 207:Source\asw/statemachine.c **** {
ARM GAS  C:\Users\mau_g\AppData\Local\Temp\ccRRG0jp.s 			page 12


 407              		.loc 1 207 0
 408              		.cfi_startproc
 409              		@ args = 0, pretend = 0, frame = 0
 410              		@ frame_needed = 0, uses_anonymous_args = 0
 411              		@ link register save eliminated.
 412              	.LVL57:
 208:Source\asw/statemachine.c ****     return me->m_state;
 209:Source\asw/statemachine.c **** }
 413              		.loc 1 209 0
 414 0000 C089     		ldrh	r0, [r0, #14]
 415              	.LVL58:
 416 0002 7047     		bx	lr
 417              		.cfi_endproc
 418              	.LFE120:
 419              		.size	STATE_getCurrentState, .-STATE_getCurrentState
 420              		.text
 421              	.Letext0:
 422              		.file 2 "c:\\program files (x86)\\cypress\\psoc creator\\4.4\\psoc creator\\import\\gnu\\arm\\5.4.
 423              		.file 3 "c:\\program files (x86)\\cypress\\psoc creator\\4.4\\psoc creator\\import\\gnu\\arm\\5.4.
 424              		.file 4 "Generated_Source\\PSoC5/ErikaOS_1_common_ee_types.inc"
 425              		.file 5 "Generated_Source\\PSoC5/ErikaOS_1_cortex_mx_ee_cpu.inc"
 426              		.file 6 ".\\Source\\bsw/global.h"
 427              		.file 7 "Source\\asw\\statemachine.h"
 428              		.file 8 "Generated_Source\\PSoC5/ErikaOS_1_ee_oo_intfunc.inc"
 429              		.file 9 "Generated_Source\\PSoC5/ErikaOS_1_cortex_mx_ee_context.inc"
 430              		.file 10 "Generated_Source\\PSoC5/ErikaOS_1_common_ee_primitives.inc"
 431              		.file 11 "Generated_Source\\PSoC5/core_cm3.h"