ARM GAS  C:\Users\mau_g\AppData\Local\Temp\ccyrSPLo.s 			page 1


   1              		.syntax unified
   2              		.cpu cortex-m3
   3              		.fpu softvfp
   4              		.eabi_attribute 20, 1
   5              		.eabi_attribute 21, 1
   6              		.eabi_attribute 23, 3
   7              		.eabi_attribute 24, 1
   8              		.eabi_attribute 25, 1
   9              		.eabi_attribute 26, 1
  10              		.eabi_attribute 30, 1
  11              		.eabi_attribute 34, 1
  12              		.eabi_attribute 18, 4
  13              		.thumb
  14              		.syntax unified
  15              		.file	"swc_clock.c"
  16              		.text
  17              	.Ltext0:
  18              		.cfi_sections	.debug_frame
  19              		.section	.text.CLOCK_input_run,"ax",%progbits
  20              		.align	2
  21              		.global	CLOCK_input_run
  22              		.thumb
  23              		.thumb_func
  24              		.type	CLOCK_input_run, %function
  25              	CLOCK_input_run:
  26              	.LFB141:
  27              		.file 1 "Source\\asw\\swc_clock.c"
   1:Source\asw/swc_clock.c **** 
   2:Source\asw/swc_clock.c **** 
   3:Source\asw/swc_clock.c **** /*
   4:Source\asw/swc_clock.c ****  * Filename: swc_clock.c
   5:Source\asw/swc_clock.c ****  *
   6:Source\asw/swc_clock.c ****  * Author: Autogenerated by H-DA RTE Generator, (c) Prof. Fromm
   7:Source\asw/swc_clock.c ****  */
   8:Source\asw/swc_clock.c **** 
   9:Source\asw/swc_clock.c **** #include "project.h"
  10:Source\asw/swc_clock.c **** #include "global.h"
  11:Source\asw/swc_clock.c **** #include "rte.h"
  12:Source\asw/swc_clock.c **** #include "rte_types.h"
  13:Source\asw/swc_clock.c **** #include "swc_clock.h"
  14:Source\asw/swc_clock.c **** #include "clock_type.h"
  15:Source\asw/swc_clock.c **** 
  16:Source\asw/swc_clock.c **** 
  17:Source\asw/swc_clock.c **** 
  18:Source\asw/swc_clock.c **** /* USER CODE START SWC_CLOCK_INCLUDE */
  19:Source\asw/swc_clock.c **** 
  20:Source\asw/swc_clock.c **** /* USER CODE END SWC_CLOCK_INCLUDE */
  21:Source\asw/swc_clock.c **** 
  22:Source\asw/swc_clock.c **** 
  23:Source\asw/swc_clock.c **** #include "sp_common.h"
  24:Source\asw/swc_clock.c **** 
  25:Source\asw/swc_clock.c **** /* USER CODE START SWC_CLOCK_USERDEFINITIONS */
  26:Source\asw/swc_clock.c **** void clbk_1s();
  27:Source\asw/swc_clock.c **** void clbk_250ms();
  28:Source\asw/swc_clock.c **** 
  29:Source\asw/swc_clock.c **** 
  30:Source\asw/swc_clock.c **** /* USER CODE END SWC_CLOCK_USERDEFINITIONS */
ARM GAS  C:\Users\mau_g\AppData\Local\Temp\ccyrSPLo.s 			page 2


  31:Source\asw/swc_clock.c **** 
  32:Source\asw/swc_clock.c **** 
  33:Source\asw/swc_clock.c **** 
  34:Source\asw/swc_clock.c **** /*
  35:Source\asw/swc_clock.c **** * component: swc_Clock
  36:Source\asw/swc_clock.c **** * cycletime: 50
  37:Source\asw/swc_clock.c **** * description: Runnable
  38:Source\asw/swc_clock.c **** * events: 
  39:Source\asw/swc_clock.c **** * name: CLOCK_input_run
  40:Source\asw/swc_clock.c **** * shortname: input
  41:Source\asw/swc_clock.c **** * signalIN: so_button
  42:Source\asw/swc_clock.c **** * signalOUT: so_event
  43:Source\asw/swc_clock.c **** * task: tsk_io
  44:Source\asw/swc_clock.c **** */
  45:Source\asw/swc_clock.c **** void CLOCK_input_run(RTE_event ev){
  28              		.loc 1 45 0
  29              		.cfi_startproc
  30              		@ args = 0, pretend = 0, frame = 8
  31              		@ frame_needed = 0, uses_anonymous_args = 0
  32              	.LVL0:
  33 0000 30B5     		push	{r4, r5, lr}
  34              		.cfi_def_cfa_offset 12
  35              		.cfi_offset 4, -12
  36              		.cfi_offset 5, -8
  37              		.cfi_offset 14, -4
  38 0002 83B0     		sub	sp, sp, #12
  39              		.cfi_def_cfa_offset 24
  46:Source\asw/swc_clock.c **** 	
  47:Source\asw/swc_clock.c **** 	/* USER CODE START CLOCK_input_run */
  48:Source\asw/swc_clock.c ****     
  49:Source\asw/swc_clock.c ****     SC_BUTTON_data_t myButton = SC_BUTTON_INIT_DATA;
  40              		.loc 1 49 0
  41 0004 0023     		movs	r3, #0
  42 0006 8DF80430 		strb	r3, [sp, #4]
  43 000a 8DF80530 		strb	r3, [sp, #5]
  50:Source\asw/swc_clock.c ****     SC_EVENT_data_t myEvent   = SC_EVENT_INIT_DATA;
  51:Source\asw/swc_clock.c ****     
  52:Source\asw/swc_clock.c ****     //This runnable is being called every 50 ms, therefore we need a variable that is incremented i
  53:Source\asw/swc_clock.c ****     //once it reaches 2000, it should set the longpress event. 
  54:Source\asw/swc_clock.c ****     
  55:Source\asw/swc_clock.c ****     static uint16_t timeCounter = 0;
  56:Source\asw/swc_clock.c ****     
  57:Source\asw/swc_clock.c ****     SC_BUTTON_driverIn(&myButton);
  44              		.loc 1 57 0
  45 000e 01A8     		add	r0, sp, #4
  46              	.LVL1:
  47 0010 FFF7FEFF 		bl	SC_BUTTON_driverIn
  48              	.LVL2:
  58:Source\asw/swc_clock.c ****     
  59:Source\asw/swc_clock.c ****     if(TRUE == myButton.buttonRightPressed)
  49              		.loc 1 59 0
  50 0014 9DF80530 		ldrb	r3, [sp, #5]	@ zero_extendqisi2
  51 0018 012B     		cmp	r3, #1
  52 001a 3BD1     		bne	.L2
  60:Source\asw/swc_clock.c ****     {
  61:Source\asw/swc_clock.c ****         if(2000 > timeCounter) //2000 will be set as the time used for the right press
  53              		.loc 1 61 0
ARM GAS  C:\Users\mau_g\AppData\Local\Temp\ccyrSPLo.s 			page 3


  54 001c 204B     		ldr	r3, .L12
  55 001e 1B88     		ldrh	r3, [r3]
  56 0020 B3F5FA6F 		cmp	r3, #2000
  57 0024 03D2     		bcs	.L3
  62:Source\asw/swc_clock.c ****         {
  63:Source\asw/swc_clock.c ****             timeCounter = timeCounter + 50; //50 because this runnable is called every 50 milisecon
  58              		.loc 1 63 0
  59 0026 3233     		adds	r3, r3, #50
  60 0028 1D4A     		ldr	r2, .L12
  61 002a 1380     		strh	r3, [r2]	@ movhi
  62 002c 35E0     		b	.L1
  63              	.L3:
  64:Source\asw/swc_clock.c ****         }
  65:Source\asw/swc_clock.c ****         else if(2000 <= timeCounter)
  64              		.loc 1 65 0
  65 002e B3F5FA6F 		cmp	r3, #2000
  66 0032 32D3     		bcc	.L1
  67              	.LVL3:
  68              	.LBB21:
  69              	.LBB22:
  70              		.file 2 ".\\Source\\rte/sc_event.h"
   1:.\Source\rte/sc_event.h **** 
   2:.\Source\rte/sc_event.h **** 
   3:.\Source\rte/sc_event.h **** /**
   4:.\Source\rte/sc_event.h **** *  file    SC_EVENT_signal.h
   5:.\Source\rte/sc_event.h **** *
   6:.\Source\rte/sc_event.h **** *  brief   signal base class for signal sc_event
   7:.\Source\rte/sc_event.h **** *
   8:.\Source\rte/sc_event.h **** *  author  Autogenerated, Peter Fromm       <peter.fromm@h-da.de>
   9:.\Source\rte/sc_event.h **** *
  10:.\Source\rte/sc_event.h **** *
  11:.\Source\rte/sc_event.h **** */
  12:.\Source\rte/sc_event.h **** 
  13:.\Source\rte/sc_event.h **** /*
  14:.\Source\rte/sc_event.h **** * description: Signal Class which will contain the events processed.
  15:.\Source\rte/sc_event.h **** * name: sc_event
  16:.\Source\rte/sc_event.h **** * shortname: event
  17:.\Source\rte/sc_event.h **** */
  18:.\Source\rte/sc_event.h **** 
  19:.\Source\rte/sc_event.h **** #ifndef SC_EVENT_SIGNAL_H_INCLUDED
  20:.\Source\rte/sc_event.h **** #define SC_EVENT_SIGNAL_H_INCLUDED
  21:.\Source\rte/sc_event.h **** 
  22:.\Source\rte/sc_event.h **** /*================================================[ public includes  ]=============================
  23:.\Source\rte/sc_event.h **** #include "global.h"
  24:.\Source\rte/sc_event.h **** #include "project.h"
  25:.\Source\rte/sc_event.h **** #include "rte.h"
  26:.\Source\rte/sc_event.h **** #include "rte_types.h"
  27:.\Source\rte/sc_event.h **** 
  28:.\Source\rte/sc_event.h **** #include "sc_event_type.h"
  29:.\Source\rte/sc_event.h **** 
  30:.\Source\rte/sc_event.h **** 
  31:.\Source\rte/sc_event.h **** /**************************************************************************************************
  32:.\Source\rte/sc_event.h **** /* The driver API block																						*/
  33:.\Source\rte/sc_event.h **** /**************************************************************************************************
  34:.\Source\rte/sc_event.h ****                                                                                                    
  35:.\Source\rte/sc_event.h **** /**
  36:.\Source\rte/sc_event.h ****  *  Definition of function types for driver interfaces.
ARM GAS  C:\Users\mau_g\AppData\Local\Temp\ccyrSPLo.s 			page 4


  37:.\Source\rte/sc_event.h ****  *  I-Port
  38:.\Source\rte/sc_event.h ****  */
  39:.\Source\rte/sc_event.h **** typedef RC_t (*SC_EVENT_driverIn_t)(SC_EVENT_data_t * const);
  40:.\Source\rte/sc_event.h **** 
  41:.\Source\rte/sc_event.h **** /**
  42:.\Source\rte/sc_event.h ****  *  Definition of function types for driver interfaces.
  43:.\Source\rte/sc_event.h ****  *  O-Port
  44:.\Source\rte/sc_event.h ****  */
  45:.\Source\rte/sc_event.h **** typedef RC_t (*SC_EVENT_driverOut_t)( const SC_EVENT_data_t * const);
  46:.\Source\rte/sc_event.h **** 
  47:.\Source\rte/sc_event.h **** 
  48:.\Source\rte/sc_event.h **** /**************************************************************************************************
  49:.\Source\rte/sc_event.h **** /* The signal configuration API block																				*/
  50:.\Source\rte/sc_event.h **** /**************************************************************************************************
  51:.\Source\rte/sc_event.h **** 
  52:.\Source\rte/sc_event.h **** /**
  53:.\Source\rte/sc_event.h ****  * Instances of the struct SC_EVENT_cfg_t represent the signal object configuration.
  54:.\Source\rte/sc_event.h ****  */
  55:.\Source\rte/sc_event.h **** struct SC_EVENT_cfg_s
  56:.\Source\rte/sc_event.h **** {
  57:.\Source\rte/sc_event.h ****     /**
  58:.\Source\rte/sc_event.h ****      * Function pointer to the input driver
  59:.\Source\rte/sc_event.h ****      */
  60:.\Source\rte/sc_event.h ****     SC_EVENT_driverIn_t const inDriver;
  61:.\Source\rte/sc_event.h **** 
  62:.\Source\rte/sc_event.h ****     /**
  63:.\Source\rte/sc_event.h ****      * Function pointer to the output driver table
  64:.\Source\rte/sc_event.h ****      */
  65:.\Source\rte/sc_event.h ****    SC_EVENT_driverOut_t const outDriver;
  66:.\Source\rte/sc_event.h ****    
  67:.\Source\rte/sc_event.h ****     /**
  68:.\Source\rte/sc_event.h ****      * Event onUpdate
  69:.\Source\rte/sc_event.h ****      */
  70:.\Source\rte/sc_event.h ****     EventMaskType const evOnUpdate;
  71:.\Source\rte/sc_event.h ****     
  72:.\Source\rte/sc_event.h ****     
  73:.\Source\rte/sc_event.h ****     /**
  74:.\Source\rte/sc_event.h ****      * Event onError
  75:.\Source\rte/sc_event.h ****      */
  76:.\Source\rte/sc_event.h ****     EventMaskType const evOnError;
  77:.\Source\rte/sc_event.h ****     
  78:.\Source\rte/sc_event.h ****     /**
  79:.\Source\rte/sc_event.h ****      * Task Count onUpdate
  80:.\Source\rte/sc_event.h ****      */
  81:.\Source\rte/sc_event.h ****     size_t const onUpdateTaskCount;
  82:.\Source\rte/sc_event.h **** 
  83:.\Source\rte/sc_event.h ****     /**
  84:.\Source\rte/sc_event.h ****      * Task List onUpdate
  85:.\Source\rte/sc_event.h ****      */
  86:.\Source\rte/sc_event.h ****     TaskTypeArray* const onUpdateTasks;
  87:.\Source\rte/sc_event.h ****     
  88:.\Source\rte/sc_event.h ****     /**
  89:.\Source\rte/sc_event.h ****      * Task Count onError
  90:.\Source\rte/sc_event.h ****      */
  91:.\Source\rte/sc_event.h ****     size_t const onErrorTaskCount;
  92:.\Source\rte/sc_event.h **** 
  93:.\Source\rte/sc_event.h ****     /**
ARM GAS  C:\Users\mau_g\AppData\Local\Temp\ccyrSPLo.s 			page 5


  94:.\Source\rte/sc_event.h ****      * Task List onError
  95:.\Source\rte/sc_event.h ****      */
  96:.\Source\rte/sc_event.h ****     TaskTypeArray* const onErrorTasks;
  97:.\Source\rte/sc_event.h **** 	
  98:.\Source\rte/sc_event.h **** 	
  99:.\Source\rte/sc_event.h **** 	/**
 100:.\Source\rte/sc_event.h **** 	 * Ressourse is active? We need an additional boolean as a ressource value 0 is valid.
 101:.\Source\rte/sc_event.h **** 	 */
 102:.\Source\rte/sc_event.h **** 	 boolean_t const resourceActive;
 103:.\Source\rte/sc_event.h **** 	 
 104:.\Source\rte/sc_event.h **** 	/**
 105:.\Source\rte/sc_event.h **** 	 * Ressourse 
 106:.\Source\rte/sc_event.h **** 	 */
 107:.\Source\rte/sc_event.h **** 	 ResourceType const resource;
 108:.\Source\rte/sc_event.h **** 
 109:.\Source\rte/sc_event.h **** };                                                                                                 
 110:.\Source\rte/sc_event.h **** typedef const struct SC_EVENT_cfg_s SC_EVENT_cfg_t;
 111:.\Source\rte/sc_event.h ****                               
 112:.\Source\rte/sc_event.h **** /**************************************************************************************************
 113:.\Source\rte/sc_event.h **** /* The data interface block																							*/
 114:.\Source\rte/sc_event.h **** /**************************************************************************************************
 115:.\Source\rte/sc_event.h **** 
 116:.\Source\rte/sc_event.h ****                                                                                                    
 117:.\Source\rte/sc_event.h **** 							  
 118:.\Source\rte/sc_event.h **** /**
 119:.\Source\rte/sc_event.h ****  * Instances of the struct SC_EVENT_t represent the signal objects.
 120:.\Source\rte/sc_event.h ****  * A signal object contains the current application value 'value' as well as relevant meta data.
 121:.\Source\rte/sc_event.h ****  */
 122:.\Source\rte/sc_event.h **** struct SC_EVENT_s
 123:.\Source\rte/sc_event.h **** {                                                                                                  
 124:.\Source\rte/sc_event.h **** 
 125:.\Source\rte/sc_event.h **** 	/**
 126:.\Source\rte/sc_event.h **** 	 * Data buffer for the application value
 127:.\Source\rte/sc_event.h **** 	 */
 128:.\Source\rte/sc_event.h ****     SC_EVENT_data_t value;
 129:.\Source\rte/sc_event.h **** 
 130:.\Source\rte/sc_event.h ****     /**
 131:.\Source\rte/sc_event.h ****      * Current signal status
 132:.\Source\rte/sc_event.h ****      */
 133:.\Source\rte/sc_event.h ****     RTE_signalStatus_t status;
 134:.\Source\rte/sc_event.h **** 
 135:.\Source\rte/sc_event.h ****     /**
 136:.\Source\rte/sc_event.h ****      * Current age of the signal (in calling cycles)
 137:.\Source\rte/sc_event.h ****      */
 138:.\Source\rte/sc_event.h ****     uint32_t age;
 139:.\Source\rte/sc_event.h **** 
 140:.\Source\rte/sc_event.h ****     /**
 141:.\Source\rte/sc_event.h ****      * Pointer to the signal configuration
 142:.\Source\rte/sc_event.h ****      */
 143:.\Source\rte/sc_event.h **** 	const SC_EVENT_cfg_t * const    pSigCfg;
 144:.\Source\rte/sc_event.h **** 
 145:.\Source\rte/sc_event.h **** };                                                                                                 
 146:.\Source\rte/sc_event.h **** typedef struct SC_EVENT_s SC_EVENT_t;
 147:.\Source\rte/sc_event.h **** 
 148:.\Source\rte/sc_event.h **** /**************************************************************************************************
 149:.\Source\rte/sc_event.h **** /* Signal initialisation   																							*/
 150:.\Source\rte/sc_event.h **** /**************************************************************************************************
ARM GAS  C:\Users\mau_g\AppData\Local\Temp\ccyrSPLo.s 			page 6


 151:.\Source\rte/sc_event.h **** 
 152:.\Source\rte/sc_event.h **** /**
 153:.\Source\rte/sc_event.h ****  * Initializes a signal instance with a passed init value.
 154:.\Source\rte/sc_event.h ****  * Depending on the configured conversion or scaling function the raw_value will be calculated.
 155:.\Source\rte/sc_event.h ****  * Signal status will change from RTE_SIGNALSTATUS_STARTUP to RTE_SIGNALSTATUS_INITIALIZED.
 156:.\Source\rte/sc_event.h ****  *
 157:.\Source\rte/sc_event.h ****  * @param  SC_EVENT_t * const signal: Pointer to the signal object which will be initialised
 158:.\Source\rte/sc_event.h ****  * @param const sc_event_data_t * const value: Pointer to initial value of the application data
 159:.\Source\rte/sc_event.h ****  * @return RC_t: standard return code, currently only RC_SUCCESS
 160:.\Source\rte/sc_event.h ****  *
 161:.\Source\rte/sc_event.h ****  **/
 162:.\Source\rte/sc_event.h **** inline RC_t RTE_SC_EVENT_init( SC_EVENT_t * const signal, const SC_EVENT_data_t * const value )
 163:.\Source\rte/sc_event.h **** {                                                                                                  
 164:.\Source\rte/sc_event.h **** 
 165:.\Source\rte/sc_event.h ****    RC_t ret = RC_SUCCESS;
 166:.\Source\rte/sc_event.h **** 
 167:.\Source\rte/sc_event.h ****    //Set value and raw value
 168:.\Source\rte/sc_event.h ****    signal->value  = *value;
 169:.\Source\rte/sc_event.h ****    signal->age    = 0;
 170:.\Source\rte/sc_event.h ****    signal->status = RTE_SIGNALSTATUS_INITIALIZED;
 171:.\Source\rte/sc_event.h **** 
 172:.\Source\rte/sc_event.h ****    return ret;
 173:.\Source\rte/sc_event.h **** }
 174:.\Source\rte/sc_event.h **** 
 175:.\Source\rte/sc_event.h **** /**************************************************************************************************
 176:.\Source\rte/sc_event.h **** /* Status and timeout control																						*/
 177:.\Source\rte/sc_event.h **** /**************************************************************************************************
 178:.\Source\rte/sc_event.h **** 
 179:.\Source\rte/sc_event.h **** /**
 180:.\Source\rte/sc_event.h ****  *  Returns the current signal status of the passed signal instance.
 181:.\Source\rte/sc_event.h ****  *
 182:.\Source\rte/sc_event.h ****  * @param  SC_EVENT_t * const signal: Pointer to the signal object
 183:.\Source\rte/sc_event.h ****  * @return  sig_status_t: The current signal status
 184:.\Source\rte/sc_event.h ****  *
 185:.\Source\rte/sc_event.h ****  **/
 186:.\Source\rte/sc_event.h **** inline RTE_signalStatus_t RTE_SC_EVENT_getStatus( const SC_EVENT_t * const signal )
 187:.\Source\rte/sc_event.h **** {
 188:.\Source\rte/sc_event.h ****    return signal->status;
 189:.\Source\rte/sc_event.h **** }
 190:.\Source\rte/sc_event.h **** 
 191:.\Source\rte/sc_event.h **** 
 192:.\Source\rte/sc_event.h **** /**
 193:.\Source\rte/sc_event.h ****  *  Sets a new signal status of the passed signal instance by passing the new status.
 194:.\Source\rte/sc_event.h ****  *
 195:.\Source\rte/sc_event.h ****  * @param  SC_EVENT_t * const signal: Pointer to the signal object
 196:.\Source\rte/sc_event.h ****  * @param  const sig_status_t status: New signal status
 197:.\Source\rte/sc_event.h ****  * @return RC_t: standard return code, currently only RC_SUCCESS
 198:.\Source\rte/sc_event.h ****  *
 199:.\Source\rte/sc_event.h ****  */
 200:.\Source\rte/sc_event.h **** inline RC_t RTE_SC_EVENT_setStatus( SC_EVENT_t * const signal, const RTE_signalStatus_t status )
 201:.\Source\rte/sc_event.h **** {
 202:.\Source\rte/sc_event.h ****    signal->status = status;
 203:.\Source\rte/sc_event.h ****    size_t taskNum=0;
 204:.\Source\rte/sc_event.h ****    
 205:.\Source\rte/sc_event.h ****    //Fire error events in case of invalid state
 206:.\Source\rte/sc_event.h ****    if (signal->status == RTE_SIGNALSTATUS_INVALID)
 207:.\Source\rte/sc_event.h ****    {
ARM GAS  C:\Users\mau_g\AppData\Local\Temp\ccyrSPLo.s 			page 7


 208:.\Source\rte/sc_event.h **** 	    //Pointer to the Taskarray, containing the tasks receiving the onUpdate events
 209:.\Source\rte/sc_event.h **** 		TaskTypeArray* pTaskArray = signal->pSigCfg->onErrorTasks;
 210:.\Source\rte/sc_event.h **** 
 211:.\Source\rte/sc_event.h **** 		if (NULL!=signal->pSigCfg->evOnError && NULL != pTaskArray){
 212:.\Source\rte/sc_event.h **** 			for( taskNum=0 ; taskNum < signal->pSigCfg->onErrorTaskCount ;taskNum++){
 213:.\Source\rte/sc_event.h **** 				TaskType task = (*pTaskArray)[taskNum];
 214:.\Source\rte/sc_event.h **** 				SetEvent( task, signal->pSigCfg->evOnError);
 215:.\Source\rte/sc_event.h **** 			}
 216:.\Source\rte/sc_event.h **** 		}
 217:.\Source\rte/sc_event.h ****    }
 218:.\Source\rte/sc_event.h ****    
 219:.\Source\rte/sc_event.h ****    return RC_SUCCESS;
 220:.\Source\rte/sc_event.h **** }
 221:.\Source\rte/sc_event.h **** 
 222:.\Source\rte/sc_event.h **** 
 223:.\Source\rte/sc_event.h **** /**
 224:.\Source\rte/sc_event.h ****  * Returns the count of refreshing trials (refresh, set or set_raw) that failed.
 225:.\Source\rte/sc_event.h ****  * Prerquisite: The signal is refreshed cyclically
 226:.\Source\rte/sc_event.h ****  *
 227:.\Source\rte/sc_event.h ****  * @param  SC_EVENT_t * const signal: Pointer to the signal object
 228:.\Source\rte/sc_event.h ****  * @return uint32_t: Number of cycles since the signal has been updated for the last time
 229:.\Source\rte/sc_event.h ****  */
 230:.\Source\rte/sc_event.h **** inline uint32_t RTE_SC_EVENT_getAge( const SC_EVENT_t * const signal )
 231:.\Source\rte/sc_event.h **** {
 232:.\Source\rte/sc_event.h ****    return signal->age;
 233:.\Source\rte/sc_event.h **** }
 234:.\Source\rte/sc_event.h **** 
 235:.\Source\rte/sc_event.h **** /**
 236:.\Source\rte/sc_event.h ****  * Should be called by application or driver if no new value can be provided.
 237:.\Source\rte/sc_event.h ****  * @param  SC_EVENT_t * const signal: Pointer to the signal object
 238:.\Source\rte/sc_event.h ****  * @param uint32_t increment: incrementvalue, typically in [ms]
 239:.\Source\rte/sc_event.h ****  * @return void
 240:.\Source\rte/sc_event.h ****  */
 241:.\Source\rte/sc_event.h **** inline void RTE_SC_EVENT_incAge(  SC_EVENT_t * const signal , uint32_t increment)
 242:.\Source\rte/sc_event.h **** {
 243:.\Source\rte/sc_event.h **** 	   //Hack....
 244:.\Source\rte/sc_event.h **** 	   if ( 0xFFFF0000 > (signal->age + increment) )
 245:.\Source\rte/sc_event.h **** 	   {
 246:.\Source\rte/sc_event.h **** 	      signal->age += increment;
 247:.\Source\rte/sc_event.h **** 	   }
 248:.\Source\rte/sc_event.h **** }
 249:.\Source\rte/sc_event.h **** 
 250:.\Source\rte/sc_event.h **** 
 251:.\Source\rte/sc_event.h **** /**************************************************************************************************
 252:.\Source\rte/sc_event.h **** /* Application Data read/write Interface																			*/
 253:.\Source\rte/sc_event.h **** /**************************************************************************************************
 254:.\Source\rte/sc_event.h **** 
 255:.\Source\rte/sc_event.h **** /**
 256:.\Source\rte/sc_event.h ****  * Returns the current application value of the passed signal instance.
 257:.\Source\rte/sc_event.h ****  *
 258:.\Source\rte/sc_event.h ****  * @param  SC_EVENT_t * const signal: Pointer to the signal object
 259:.\Source\rte/sc_event.h ****  * @return sc_event_data_t: current value of the application data buffer
 260:.\Source\rte/sc_event.h ****  *
 261:.\Source\rte/sc_event.h ****  **/
 262:.\Source\rte/sc_event.h **** inline SC_EVENT_data_t RTE_SC_EVENT_get( const SC_EVENT_t * const signal )
 263:.\Source\rte/sc_event.h **** {               
 264:.\Source\rte/sc_event.h ****    //Todo: Critical region cannot be protected using return values																						
ARM GAS  C:\Users\mau_g\AppData\Local\Temp\ccyrSPLo.s 			page 8


 265:.\Source\rte/sc_event.h ****    return signal->value;                                                                           
 266:.\Source\rte/sc_event.h **** }                                                                                                  
 267:.\Source\rte/sc_event.h ****                                                                                                    
 268:.\Source\rte/sc_event.h **** /**
 269:.\Source\rte/sc_event.h ****  * Returns the current application value of the passed signal instance threadsafe.
 270:.\Source\rte/sc_event.h ****  *
 271:.\Source\rte/sc_event.h ****  * @param  SC_EVENT_t * const signal: Pointer to the signal object
 272:.\Source\rte/sc_event.h ****  * @param  SC_EVENT_data_t* data: Pointer to the return data Pointer to the signal object
 273:.\Source\rte/sc_event.h ****  * @return RC_SUCCESS
 274:.\Source\rte/sc_event.h ****  *
 275:.\Source\rte/sc_event.h ****  **/
 276:.\Source\rte/sc_event.h **** inline RC_t RTE_SC_EVENT_getThreadSafe( const SC_EVENT_t * const signal, SC_EVENT_data_t * const da
 277:.\Source\rte/sc_event.h **** {    
 278:.\Source\rte/sc_event.h ****    if (TRUE == signal->pSigCfg->resourceActive) GetResource(signal->pSigCfg->resource);
 279:.\Source\rte/sc_event.h ****    *data = signal->value;
 280:.\Source\rte/sc_event.h ****    if (TRUE == signal->pSigCfg->resourceActive) ReleaseResource(signal->pSigCfg->resource);        
 281:.\Source\rte/sc_event.h **** 
 282:.\Source\rte/sc_event.h ****    return RC_SUCCESS;                                                                   
 283:.\Source\rte/sc_event.h ****    
 284:.\Source\rte/sc_event.h **** }                                                                                                  
 285:.\Source\rte/sc_event.h ****                                                                                                    
 286:.\Source\rte/sc_event.h **** /**
 287:.\Source\rte/sc_event.h ****  * Sets a new application value to the passed signal instance by passing the new value.
 288:.\Source\rte/sc_event.h ****  * The corresponding driver raw value will be calculated immediately by using the default conversio
 289:.\Source\rte/sc_event.h ****  * signal specific scaling function.
 290:.\Source\rte/sc_event.h ****  * The signal age will be set to 0 and the new status will be 'RTE_SIGNALSTATUS_VALID'.
 291:.\Source\rte/sc_event.h ****  *
 292:.\Source\rte/sc_event.h ****  * @param  SC_EVENT_t * const signal: Pointer to the signal object
 293:.\Source\rte/sc_event.h ****  * @param  sc_event_data_t const value: value for the application data buffer
 294:.\Source\rte/sc_event.h ****  * @return RC_t: standard return code, currently only RC_SUCCESS
 295:.\Source\rte/sc_event.h ****  *
 296:.\Source\rte/sc_event.h ****  **/
 297:.\Source\rte/sc_event.h **** inline RC_t RTE_SC_EVENT_set(SC_EVENT_t * const signal, const SC_EVENT_data_t value  )
 298:.\Source\rte/sc_event.h **** {
 299:.\Source\rte/sc_event.h **** 
 300:.\Source\rte/sc_event.h ****    RC_t ret = RC_SUCCESS;
 301:.\Source\rte/sc_event.h ****    size_t taskNum=0;
 302:.\Source\rte/sc_event.h **** 
 303:.\Source\rte/sc_event.h **** 
 304:.\Source\rte/sc_event.h ****    if (TRUE == signal->pSigCfg->resourceActive) GetResource(signal->pSigCfg->resource);
  71              		.loc 2 304 0
  72 0034 1B4B     		ldr	r3, .L12+4
  73 0036 9B68     		ldr	r3, [r3, #8]
  74 0038 93F82020 		ldrb	r2, [r3, #32]	@ zero_extendqisi2
  75 003c 012A     		cmp	r2, #1
  76 003e 02D1     		bne	.L5
  77 0040 586A     		ldr	r0, [r3, #36]
  78 0042 FFF7FEFF 		bl	EE_oo_GetResource
  79              	.LVL4:
  80              	.L5:
 305:.\Source\rte/sc_event.h ****    signal->value  = value;
  81              		.loc 2 305 0
  82 0046 174B     		ldr	r3, .L12+4
  83 0048 0322     		movs	r2, #3
  84 004a 1A70     		strb	r2, [r3]
 306:.\Source\rte/sc_event.h ****    signal->age    = 0;
  85              		.loc 2 306 0
ARM GAS  C:\Users\mau_g\AppData\Local\Temp\ccyrSPLo.s 			page 9


  86 004c 0022     		movs	r2, #0
  87 004e 5A60     		str	r2, [r3, #4]
 307:.\Source\rte/sc_event.h ****    signal->status = RTE_SIGNALSTATUS_VALID;
  88              		.loc 2 307 0
  89 0050 0222     		movs	r2, #2
  90 0052 5A70     		strb	r2, [r3, #1]
 308:.\Source\rte/sc_event.h ****    if (TRUE == signal->pSigCfg->resourceActive) ReleaseResource(signal->pSigCfg->resource);
  91              		.loc 2 308 0
  92 0054 9B68     		ldr	r3, [r3, #8]
  93 0056 93F82020 		ldrb	r2, [r3, #32]	@ zero_extendqisi2
  94 005a 012A     		cmp	r2, #1
  95 005c 02D1     		bne	.L6
  96 005e 586A     		ldr	r0, [r3, #36]
  97 0060 FFF7FEFF 		bl	EE_oo_ReleaseResource
  98              	.LVL5:
  99              	.L6:
 309:.\Source\rte/sc_event.h **** 
 310:.\Source\rte/sc_event.h ****    //Pointer to the Taskarray, containing the tasks receiving the onUpdate events
 311:.\Source\rte/sc_event.h ****    TaskTypeArray* pTaskArray = signal->pSigCfg->onUpdateTasks;
 100              		.loc 2 311 0
 101 0064 0F4B     		ldr	r3, .L12+4
 102 0066 9B68     		ldr	r3, [r3, #8]
 103 0068 5D69     		ldr	r5, [r3, #20]
 104              	.LVL6:
 312:.\Source\rte/sc_event.h **** 
 313:.\Source\rte/sc_event.h ****    if (NULL!=signal->pSigCfg->evOnUpdate && NULL != pTaskArray){
 105              		.loc 2 313 0
 106 006a 9B68     		ldr	r3, [r3, #8]
 107 006c 73B1     		cbz	r3, .L7
 108 006e 3DB9     		cbnz	r5, .L10
 109 0070 0CE0     		b	.L7
 110              	.LVL7:
 111              	.L9:
 112              	.LBB23:
 314:.\Source\rte/sc_event.h ****       for( taskNum=0 ; taskNum < signal->pSigCfg->onUpdateTaskCount ;taskNum++){
 315:.\Source\rte/sc_event.h **** 		  
 316:.\Source\rte/sc_event.h ****           TaskType task = (*pTaskArray)[taskNum];
 317:.\Source\rte/sc_event.h **** 	      SetEvent( task, signal->pSigCfg->evOnUpdate);
 113              		.loc 2 317 0
 114 0072 9968     		ldr	r1, [r3, #8]
 115 0074 55F82400 		ldr	r0, [r5, r4, lsl #2]
 116 0078 FFF7FEFF 		bl	EE_oo_SetEvent
 117              	.LVL8:
 118              	.LBE23:
 314:.\Source\rte/sc_event.h ****       for( taskNum=0 ; taskNum < signal->pSigCfg->onUpdateTaskCount ;taskNum++){
 119              		.loc 2 314 0
 120 007c 0134     		adds	r4, r4, #1
 121              	.LVL9:
 122 007e 00E0     		b	.L8
 123              	.LVL10:
 124              	.L10:
 313:.\Source\rte/sc_event.h ****       for( taskNum=0 ; taskNum < signal->pSigCfg->onUpdateTaskCount ;taskNum++){
 125              		.loc 2 313 0
 126 0080 0024     		movs	r4, #0
 127              	.LVL11:
 128              	.L8:
 314:.\Source\rte/sc_event.h ****       for( taskNum=0 ; taskNum < signal->pSigCfg->onUpdateTaskCount ;taskNum++){
ARM GAS  C:\Users\mau_g\AppData\Local\Temp\ccyrSPLo.s 			page 10


 129              		.loc 2 314 0
 130 0082 084B     		ldr	r3, .L12+4
 131 0084 9B68     		ldr	r3, [r3, #8]
 132 0086 1A69     		ldr	r2, [r3, #16]
 133 0088 9442     		cmp	r4, r2
 134 008a F2D3     		bcc	.L9
 135              	.LVL12:
 136              	.L7:
 137              	.LBE22:
 138              	.LBE21:
  66:Source\asw/swc_clock.c ****         {
  67:Source\asw/swc_clock.c ****             myEvent.m_ev = EV_KEYRIGHTLONGPRESS;
  68:Source\asw/swc_clock.c ****             
  69:Source\asw/swc_clock.c ****             RTE_SC_EVENT_set(&SO_EVENT_signal, myEvent);
  70:Source\asw/swc_clock.c ****             
  71:Source\asw/swc_clock.c ****             timeCounter = 0;
 139              		.loc 1 71 0
 140 008c 0022     		movs	r2, #0
 141 008e 044B     		ldr	r3, .L12
 142 0090 1A80     		strh	r2, [r3]	@ movhi
 143 0092 02E0     		b	.L1
 144              	.LVL13:
 145              	.L2:
  72:Source\asw/swc_clock.c ****         }
  73:Source\asw/swc_clock.c ****         else
  74:Source\asw/swc_clock.c ****         {
  75:Source\asw/swc_clock.c ****             //Intended to do nothing.
  76:Source\asw/swc_clock.c ****         }
  77:Source\asw/swc_clock.c ****     }
  78:Source\asw/swc_clock.c ****     else
  79:Source\asw/swc_clock.c ****     {
  80:Source\asw/swc_clock.c ****         timeCounter = 0;
 146              		.loc 1 80 0
 147 0094 0022     		movs	r2, #0
 148 0096 024B     		ldr	r3, .L12
 149 0098 1A80     		strh	r2, [r3]	@ movhi
 150              	.L1:
  81:Source\asw/swc_clock.c ****     }
  82:Source\asw/swc_clock.c ****     
  83:Source\asw/swc_clock.c ****     /* USER CODE END CLOCK_input_run */
  84:Source\asw/swc_clock.c **** }
 151              		.loc 1 84 0
 152 009a 03B0     		add	sp, sp, #12
 153              		.cfi_def_cfa_offset 12
 154              		@ sp needed
 155 009c 30BD     		pop	{r4, r5, pc}
 156              	.L13:
 157 009e 00BF     		.align	2
 158              	.L12:
 159 00a0 00000000 		.word	.LANCHOR0
 160 00a4 00000000 		.word	SO_EVENT_signal
 161              		.cfi_endproc
 162              	.LFE141:
 163              		.size	CLOCK_input_run, .-CLOCK_input_run
 164              		.section	.text.CLOCK_control_run,"ax",%progbits
 165              		.align	2
 166              		.global	CLOCK_control_run
ARM GAS  C:\Users\mau_g\AppData\Local\Temp\ccyrSPLo.s 			page 11


 167              		.thumb
 168              		.thumb_func
 169              		.type	CLOCK_control_run, %function
 170              	CLOCK_control_run:
 171              	.LFB142:
  85:Source\asw/swc_clock.c **** 
  86:Source\asw/swc_clock.c **** /*
  87:Source\asw/swc_clock.c **** * component: swc_Clock
  88:Source\asw/swc_clock.c **** * cycletime: 0
  89:Source\asw/swc_clock.c **** * description: Runnable
  90:Source\asw/swc_clock.c **** * events: ev_onUpdate
  91:Source\asw/swc_clock.c **** * name: CLOCK_control_run
  92:Source\asw/swc_clock.c **** * shortname: control
  93:Source\asw/swc_clock.c **** * signalIN: so_event
  94:Source\asw/swc_clock.c **** * signalOUT: so_clock
  95:Source\asw/swc_clock.c **** * task: tsk_control
  96:Source\asw/swc_clock.c **** */
  97:Source\asw/swc_clock.c **** void CLOCK_control_run(RTE_event ev){
 172              		.loc 1 97 0
 173              		.cfi_startproc
 174              		@ args = 0, pretend = 0, frame = 0
 175              		@ frame_needed = 0, uses_anonymous_args = 0
 176              	.LVL14:
 177 0000 08B5     		push	{r3, lr}
 178              		.cfi_def_cfa_offset 8
 179              		.cfi_offset 3, -8
 180              		.cfi_offset 14, -4
 181              	.LVL15:
  98:Source\asw/swc_clock.c **** 	
  99:Source\asw/swc_clock.c **** 	/* USER CODE START CLOCK_control_run */
 100:Source\asw/swc_clock.c ****     
 101:Source\asw/swc_clock.c ****     SC_EVENT_data_t myEvent = RTE_SC_EVENT_get(&SO_EVENT_signal);
 102:Source\asw/swc_clock.c ****     
 103:Source\asw/swc_clock.c ****     STATE_processEvent(&CLOCK_fsm, EVENT(myEvent.m_ev));
 182              		.loc 1 103 0
 183 0002 034B     		ldr	r3, .L16
 184 0004 1978     		ldrb	r1, [r3]	@ zero_extendqisi2
 185 0006 0348     		ldr	r0, .L16+4
 186              	.LVL16:
 187 0008 FFF7FEFF 		bl	STATE_processEvent
 188              	.LVL17:
 189 000c 08BD     		pop	{r3, pc}
 190              	.L17:
 191 000e 00BF     		.align	2
 192              	.L16:
 193 0010 00000000 		.word	SO_EVENT_signal
 194 0014 00000000 		.word	CLOCK_fsm
 195              		.cfi_endproc
 196              	.LFE142:
 197              		.size	CLOCK_control_run, .-CLOCK_control_run
 198              		.section	.text.CLOCK_display_run,"ax",%progbits
 199              		.align	2
 200              		.global	CLOCK_display_run
 201              		.thumb
 202              		.thumb_func
 203              		.type	CLOCK_display_run, %function
 204              	CLOCK_display_run:
ARM GAS  C:\Users\mau_g\AppData\Local\Temp\ccyrSPLo.s 			page 12


 205              	.LFB143:
 104:Source\asw/swc_clock.c **** 
 105:Source\asw/swc_clock.c ****     /* USER CODE END CLOCK_control_run */
 106:Source\asw/swc_clock.c **** }
 107:Source\asw/swc_clock.c **** 
 108:Source\asw/swc_clock.c **** /*
 109:Source\asw/swc_clock.c **** * component: swc_Clock
 110:Source\asw/swc_clock.c **** * cycletime: 250
 111:Source\asw/swc_clock.c **** * description: Runnable
 112:Source\asw/swc_clock.c **** * events: 
 113:Source\asw/swc_clock.c **** * name: CLOCK_display_run
 114:Source\asw/swc_clock.c **** * shortname: display
 115:Source\asw/swc_clock.c **** * signalIN: so_clock
 116:Source\asw/swc_clock.c **** * signalOUT: so_clock_display
 117:Source\asw/swc_clock.c **** * task: tsk_io
 118:Source\asw/swc_clock.c **** */
 119:Source\asw/swc_clock.c **** void CLOCK_display_run(RTE_event ev){
 206              		.loc 1 119 0
 207              		.cfi_startproc
 208              		@ args = 0, pretend = 0, frame = 24
 209              		@ frame_needed = 0, uses_anonymous_args = 0
 210              	.LVL18:
 211 0000 30B5     		push	{r4, r5, lr}
 212              		.cfi_def_cfa_offset 12
 213              		.cfi_offset 4, -12
 214              		.cfi_offset 5, -8
 215              		.cfi_offset 14, -4
 216 0002 87B0     		sub	sp, sp, #28
 217              		.cfi_def_cfa_offset 40
 218              	.LVL19:
 219              	.LBB24:
 220              	.LBB25:
 221              		.file 3 ".\\Source\\rte/sc_clock.h"
   1:.\Source\rte/sc_clock.h **** 
   2:.\Source\rte/sc_clock.h **** 
   3:.\Source\rte/sc_clock.h **** /**
   4:.\Source\rte/sc_clock.h **** *  file    SC_CLOCK_signal.h
   5:.\Source\rte/sc_clock.h **** *
   6:.\Source\rte/sc_clock.h **** *  brief   signal base class for signal sc_clock
   7:.\Source\rte/sc_clock.h **** *
   8:.\Source\rte/sc_clock.h **** *  author  Autogenerated, Peter Fromm       <peter.fromm@h-da.de>
   9:.\Source\rte/sc_clock.h **** *
  10:.\Source\rte/sc_clock.h **** *
  11:.\Source\rte/sc_clock.h **** */
  12:.\Source\rte/sc_clock.h **** 
  13:.\Source\rte/sc_clock.h **** /*
  14:.\Source\rte/sc_clock.h **** * description: Signalclass for the clock including the hour and the minute widget
  15:.\Source\rte/sc_clock.h **** * name: sc_clock
  16:.\Source\rte/sc_clock.h **** * shortname: clock
  17:.\Source\rte/sc_clock.h **** */
  18:.\Source\rte/sc_clock.h **** 
  19:.\Source\rte/sc_clock.h **** #ifndef SC_CLOCK_SIGNAL_H_INCLUDED
  20:.\Source\rte/sc_clock.h **** #define SC_CLOCK_SIGNAL_H_INCLUDED
  21:.\Source\rte/sc_clock.h **** 
  22:.\Source\rte/sc_clock.h **** /*================================================[ public includes  ]=============================
  23:.\Source\rte/sc_clock.h **** #include "global.h"
  24:.\Source\rte/sc_clock.h **** #include "project.h"
ARM GAS  C:\Users\mau_g\AppData\Local\Temp\ccyrSPLo.s 			page 13


  25:.\Source\rte/sc_clock.h **** #include "rte.h"
  26:.\Source\rte/sc_clock.h **** #include "rte_types.h"
  27:.\Source\rte/sc_clock.h **** 
  28:.\Source\rte/sc_clock.h **** #include "sc_clock_type.h"
  29:.\Source\rte/sc_clock.h **** 
  30:.\Source\rte/sc_clock.h **** 
  31:.\Source\rte/sc_clock.h **** /**************************************************************************************************
  32:.\Source\rte/sc_clock.h **** /* The driver API block																						*/
  33:.\Source\rte/sc_clock.h **** /**************************************************************************************************
  34:.\Source\rte/sc_clock.h ****                                                                                                    
  35:.\Source\rte/sc_clock.h **** /**
  36:.\Source\rte/sc_clock.h ****  *  Definition of function types for driver interfaces.
  37:.\Source\rte/sc_clock.h ****  *  I-Port
  38:.\Source\rte/sc_clock.h ****  */
  39:.\Source\rte/sc_clock.h **** typedef RC_t (*SC_CLOCK_driverIn_t)(SC_CLOCK_data_t * const);
  40:.\Source\rte/sc_clock.h **** 
  41:.\Source\rte/sc_clock.h **** /**
  42:.\Source\rte/sc_clock.h ****  *  Definition of function types for driver interfaces.
  43:.\Source\rte/sc_clock.h ****  *  O-Port
  44:.\Source\rte/sc_clock.h ****  */
  45:.\Source\rte/sc_clock.h **** typedef RC_t (*SC_CLOCK_driverOut_t)( const SC_CLOCK_data_t * const);
  46:.\Source\rte/sc_clock.h **** 
  47:.\Source\rte/sc_clock.h **** 
  48:.\Source\rte/sc_clock.h **** /**************************************************************************************************
  49:.\Source\rte/sc_clock.h **** /* The signal configuration API block																				*/
  50:.\Source\rte/sc_clock.h **** /**************************************************************************************************
  51:.\Source\rte/sc_clock.h **** 
  52:.\Source\rte/sc_clock.h **** /**
  53:.\Source\rte/sc_clock.h ****  * Instances of the struct SC_CLOCK_cfg_t represent the signal object configuration.
  54:.\Source\rte/sc_clock.h ****  */
  55:.\Source\rte/sc_clock.h **** struct SC_CLOCK_cfg_s
  56:.\Source\rte/sc_clock.h **** {
  57:.\Source\rte/sc_clock.h ****     /**
  58:.\Source\rte/sc_clock.h ****      * Function pointer to the input driver
  59:.\Source\rte/sc_clock.h ****      */
  60:.\Source\rte/sc_clock.h ****     SC_CLOCK_driverIn_t const inDriver;
  61:.\Source\rte/sc_clock.h **** 
  62:.\Source\rte/sc_clock.h ****     /**
  63:.\Source\rte/sc_clock.h ****      * Function pointer to the output driver table
  64:.\Source\rte/sc_clock.h ****      */
  65:.\Source\rte/sc_clock.h ****    SC_CLOCK_driverOut_t const outDriver;
  66:.\Source\rte/sc_clock.h ****    
  67:.\Source\rte/sc_clock.h ****     /**
  68:.\Source\rte/sc_clock.h ****      * Event onUpdate
  69:.\Source\rte/sc_clock.h ****      */
  70:.\Source\rte/sc_clock.h ****     EventMaskType const evOnUpdate;
  71:.\Source\rte/sc_clock.h ****     
  72:.\Source\rte/sc_clock.h ****     
  73:.\Source\rte/sc_clock.h ****     /**
  74:.\Source\rte/sc_clock.h ****      * Event onError
  75:.\Source\rte/sc_clock.h ****      */
  76:.\Source\rte/sc_clock.h ****     EventMaskType const evOnError;
  77:.\Source\rte/sc_clock.h ****     
  78:.\Source\rte/sc_clock.h ****     /**
  79:.\Source\rte/sc_clock.h ****      * Task Count onUpdate
  80:.\Source\rte/sc_clock.h ****      */
  81:.\Source\rte/sc_clock.h ****     size_t const onUpdateTaskCount;
ARM GAS  C:\Users\mau_g\AppData\Local\Temp\ccyrSPLo.s 			page 14


  82:.\Source\rte/sc_clock.h **** 
  83:.\Source\rte/sc_clock.h ****     /**
  84:.\Source\rte/sc_clock.h ****      * Task List onUpdate
  85:.\Source\rte/sc_clock.h ****      */
  86:.\Source\rte/sc_clock.h ****     TaskTypeArray* const onUpdateTasks;
  87:.\Source\rte/sc_clock.h ****     
  88:.\Source\rte/sc_clock.h ****     /**
  89:.\Source\rte/sc_clock.h ****      * Task Count onError
  90:.\Source\rte/sc_clock.h ****      */
  91:.\Source\rte/sc_clock.h ****     size_t const onErrorTaskCount;
  92:.\Source\rte/sc_clock.h **** 
  93:.\Source\rte/sc_clock.h ****     /**
  94:.\Source\rte/sc_clock.h ****      * Task List onError
  95:.\Source\rte/sc_clock.h ****      */
  96:.\Source\rte/sc_clock.h ****     TaskTypeArray* const onErrorTasks;
  97:.\Source\rte/sc_clock.h **** 	
  98:.\Source\rte/sc_clock.h **** 	
  99:.\Source\rte/sc_clock.h **** 	/**
 100:.\Source\rte/sc_clock.h **** 	 * Ressourse is active? We need an additional boolean as a ressource value 0 is valid.
 101:.\Source\rte/sc_clock.h **** 	 */
 102:.\Source\rte/sc_clock.h **** 	 boolean_t const resourceActive;
 103:.\Source\rte/sc_clock.h **** 	 
 104:.\Source\rte/sc_clock.h **** 	/**
 105:.\Source\rte/sc_clock.h **** 	 * Ressourse 
 106:.\Source\rte/sc_clock.h **** 	 */
 107:.\Source\rte/sc_clock.h **** 	 ResourceType const resource;
 108:.\Source\rte/sc_clock.h **** 
 109:.\Source\rte/sc_clock.h **** };                                                                                                 
 110:.\Source\rte/sc_clock.h **** typedef const struct SC_CLOCK_cfg_s SC_CLOCK_cfg_t;
 111:.\Source\rte/sc_clock.h ****                               
 112:.\Source\rte/sc_clock.h **** /**************************************************************************************************
 113:.\Source\rte/sc_clock.h **** /* The data interface block																							*/
 114:.\Source\rte/sc_clock.h **** /**************************************************************************************************
 115:.\Source\rte/sc_clock.h **** 
 116:.\Source\rte/sc_clock.h ****                                                                                                    
 117:.\Source\rte/sc_clock.h **** 							  
 118:.\Source\rte/sc_clock.h **** /**
 119:.\Source\rte/sc_clock.h ****  * Instances of the struct SC_CLOCK_t represent the signal objects.
 120:.\Source\rte/sc_clock.h ****  * A signal object contains the current application value 'value' as well as relevant meta data.
 121:.\Source\rte/sc_clock.h ****  */
 122:.\Source\rte/sc_clock.h **** struct SC_CLOCK_s
 123:.\Source\rte/sc_clock.h **** {                                                                                                  
 124:.\Source\rte/sc_clock.h **** 
 125:.\Source\rte/sc_clock.h **** 	/**
 126:.\Source\rte/sc_clock.h **** 	 * Data buffer for the application value
 127:.\Source\rte/sc_clock.h **** 	 */
 128:.\Source\rte/sc_clock.h ****     SC_CLOCK_data_t value;
 129:.\Source\rte/sc_clock.h **** 
 130:.\Source\rte/sc_clock.h ****     /**
 131:.\Source\rte/sc_clock.h ****      * Current signal status
 132:.\Source\rte/sc_clock.h ****      */
 133:.\Source\rte/sc_clock.h ****     RTE_signalStatus_t status;
 134:.\Source\rte/sc_clock.h **** 
 135:.\Source\rte/sc_clock.h ****     /**
 136:.\Source\rte/sc_clock.h ****      * Current age of the signal (in calling cycles)
 137:.\Source\rte/sc_clock.h ****      */
 138:.\Source\rte/sc_clock.h ****     uint32_t age;
ARM GAS  C:\Users\mau_g\AppData\Local\Temp\ccyrSPLo.s 			page 15


 139:.\Source\rte/sc_clock.h **** 
 140:.\Source\rte/sc_clock.h ****     /**
 141:.\Source\rte/sc_clock.h ****      * Pointer to the signal configuration
 142:.\Source\rte/sc_clock.h ****      */
 143:.\Source\rte/sc_clock.h **** 	const SC_CLOCK_cfg_t * const    pSigCfg;
 144:.\Source\rte/sc_clock.h **** 
 145:.\Source\rte/sc_clock.h **** };                                                                                                 
 146:.\Source\rte/sc_clock.h **** typedef struct SC_CLOCK_s SC_CLOCK_t;
 147:.\Source\rte/sc_clock.h **** 
 148:.\Source\rte/sc_clock.h **** /**************************************************************************************************
 149:.\Source\rte/sc_clock.h **** /* Signal initialisation   																							*/
 150:.\Source\rte/sc_clock.h **** /**************************************************************************************************
 151:.\Source\rte/sc_clock.h **** 
 152:.\Source\rte/sc_clock.h **** /**
 153:.\Source\rte/sc_clock.h ****  * Initializes a signal instance with a passed init value.
 154:.\Source\rte/sc_clock.h ****  * Depending on the configured conversion or scaling function the raw_value will be calculated.
 155:.\Source\rte/sc_clock.h ****  * Signal status will change from RTE_SIGNALSTATUS_STARTUP to RTE_SIGNALSTATUS_INITIALIZED.
 156:.\Source\rte/sc_clock.h ****  *
 157:.\Source\rte/sc_clock.h ****  * @param  SC_CLOCK_t * const signal: Pointer to the signal object which will be initialised
 158:.\Source\rte/sc_clock.h ****  * @param const sc_clock_data_t * const value: Pointer to initial value of the application data
 159:.\Source\rte/sc_clock.h ****  * @return RC_t: standard return code, currently only RC_SUCCESS
 160:.\Source\rte/sc_clock.h ****  *
 161:.\Source\rte/sc_clock.h ****  **/
 162:.\Source\rte/sc_clock.h **** inline RC_t RTE_SC_CLOCK_init( SC_CLOCK_t * const signal, const SC_CLOCK_data_t * const value )
 163:.\Source\rte/sc_clock.h **** {                                                                                                  
 164:.\Source\rte/sc_clock.h **** 
 165:.\Source\rte/sc_clock.h ****    RC_t ret = RC_SUCCESS;
 166:.\Source\rte/sc_clock.h **** 
 167:.\Source\rte/sc_clock.h ****    //Set value and raw value
 168:.\Source\rte/sc_clock.h ****    signal->value  = *value;
 169:.\Source\rte/sc_clock.h ****    signal->age    = 0;
 170:.\Source\rte/sc_clock.h ****    signal->status = RTE_SIGNALSTATUS_INITIALIZED;
 171:.\Source\rte/sc_clock.h **** 
 172:.\Source\rte/sc_clock.h ****    return ret;
 173:.\Source\rte/sc_clock.h **** }
 174:.\Source\rte/sc_clock.h **** 
 175:.\Source\rte/sc_clock.h **** /**************************************************************************************************
 176:.\Source\rte/sc_clock.h **** /* Status and timeout control																						*/
 177:.\Source\rte/sc_clock.h **** /**************************************************************************************************
 178:.\Source\rte/sc_clock.h **** 
 179:.\Source\rte/sc_clock.h **** /**
 180:.\Source\rte/sc_clock.h ****  *  Returns the current signal status of the passed signal instance.
 181:.\Source\rte/sc_clock.h ****  *
 182:.\Source\rte/sc_clock.h ****  * @param  SC_CLOCK_t * const signal: Pointer to the signal object
 183:.\Source\rte/sc_clock.h ****  * @return  sig_status_t: The current signal status
 184:.\Source\rte/sc_clock.h ****  *
 185:.\Source\rte/sc_clock.h ****  **/
 186:.\Source\rte/sc_clock.h **** inline RTE_signalStatus_t RTE_SC_CLOCK_getStatus( const SC_CLOCK_t * const signal )
 187:.\Source\rte/sc_clock.h **** {
 188:.\Source\rte/sc_clock.h ****    return signal->status;
 189:.\Source\rte/sc_clock.h **** }
 190:.\Source\rte/sc_clock.h **** 
 191:.\Source\rte/sc_clock.h **** 
 192:.\Source\rte/sc_clock.h **** /**
 193:.\Source\rte/sc_clock.h ****  *  Sets a new signal status of the passed signal instance by passing the new status.
 194:.\Source\rte/sc_clock.h ****  *
 195:.\Source\rte/sc_clock.h ****  * @param  SC_CLOCK_t * const signal: Pointer to the signal object
ARM GAS  C:\Users\mau_g\AppData\Local\Temp\ccyrSPLo.s 			page 16


 196:.\Source\rte/sc_clock.h ****  * @param  const sig_status_t status: New signal status
 197:.\Source\rte/sc_clock.h ****  * @return RC_t: standard return code, currently only RC_SUCCESS
 198:.\Source\rte/sc_clock.h ****  *
 199:.\Source\rte/sc_clock.h ****  */
 200:.\Source\rte/sc_clock.h **** inline RC_t RTE_SC_CLOCK_setStatus( SC_CLOCK_t * const signal, const RTE_signalStatus_t status )
 201:.\Source\rte/sc_clock.h **** {
 202:.\Source\rte/sc_clock.h ****    signal->status = status;
 203:.\Source\rte/sc_clock.h ****    size_t taskNum=0;
 204:.\Source\rte/sc_clock.h ****    
 205:.\Source\rte/sc_clock.h ****    //Fire error events in case of invalid state
 206:.\Source\rte/sc_clock.h ****    if (signal->status == RTE_SIGNALSTATUS_INVALID)
 207:.\Source\rte/sc_clock.h ****    {
 208:.\Source\rte/sc_clock.h **** 	    //Pointer to the Taskarray, containing the tasks receiving the onUpdate events
 209:.\Source\rte/sc_clock.h **** 		TaskTypeArray* pTaskArray = signal->pSigCfg->onErrorTasks;
 210:.\Source\rte/sc_clock.h **** 
 211:.\Source\rte/sc_clock.h **** 		if (NULL!=signal->pSigCfg->evOnError && NULL != pTaskArray){
 212:.\Source\rte/sc_clock.h **** 			for( taskNum=0 ; taskNum < signal->pSigCfg->onErrorTaskCount ;taskNum++){
 213:.\Source\rte/sc_clock.h **** 				TaskType task = (*pTaskArray)[taskNum];
 214:.\Source\rte/sc_clock.h **** 				SetEvent( task, signal->pSigCfg->evOnError);
 215:.\Source\rte/sc_clock.h **** 			}
 216:.\Source\rte/sc_clock.h **** 		}
 217:.\Source\rte/sc_clock.h ****    }
 218:.\Source\rte/sc_clock.h ****    
 219:.\Source\rte/sc_clock.h ****    return RC_SUCCESS;
 220:.\Source\rte/sc_clock.h **** }
 221:.\Source\rte/sc_clock.h **** 
 222:.\Source\rte/sc_clock.h **** 
 223:.\Source\rte/sc_clock.h **** /**
 224:.\Source\rte/sc_clock.h ****  * Returns the count of refreshing trials (refresh, set or set_raw) that failed.
 225:.\Source\rte/sc_clock.h ****  * Prerquisite: The signal is refreshed cyclically
 226:.\Source\rte/sc_clock.h ****  *
 227:.\Source\rte/sc_clock.h ****  * @param  SC_CLOCK_t * const signal: Pointer to the signal object
 228:.\Source\rte/sc_clock.h ****  * @return uint32_t: Number of cycles since the signal has been updated for the last time
 229:.\Source\rte/sc_clock.h ****  */
 230:.\Source\rte/sc_clock.h **** inline uint32_t RTE_SC_CLOCK_getAge( const SC_CLOCK_t * const signal )
 231:.\Source\rte/sc_clock.h **** {
 232:.\Source\rte/sc_clock.h ****    return signal->age;
 233:.\Source\rte/sc_clock.h **** }
 234:.\Source\rte/sc_clock.h **** 
 235:.\Source\rte/sc_clock.h **** /**
 236:.\Source\rte/sc_clock.h ****  * Should be called by application or driver if no new value can be provided.
 237:.\Source\rte/sc_clock.h ****  * @param  SC_CLOCK_t * const signal: Pointer to the signal object
 238:.\Source\rte/sc_clock.h ****  * @param uint32_t increment: incrementvalue, typically in [ms]
 239:.\Source\rte/sc_clock.h ****  * @return void
 240:.\Source\rte/sc_clock.h ****  */
 241:.\Source\rte/sc_clock.h **** inline void RTE_SC_CLOCK_incAge(  SC_CLOCK_t * const signal , uint32_t increment)
 242:.\Source\rte/sc_clock.h **** {
 243:.\Source\rte/sc_clock.h **** 	   //Hack....
 244:.\Source\rte/sc_clock.h **** 	   if ( 0xFFFF0000 > (signal->age + increment) )
 245:.\Source\rte/sc_clock.h **** 	   {
 246:.\Source\rte/sc_clock.h **** 	      signal->age += increment;
 247:.\Source\rte/sc_clock.h **** 	   }
 248:.\Source\rte/sc_clock.h **** }
 249:.\Source\rte/sc_clock.h **** 
 250:.\Source\rte/sc_clock.h **** 
 251:.\Source\rte/sc_clock.h **** /**************************************************************************************************
 252:.\Source\rte/sc_clock.h **** /* Application Data read/write Interface																			*/
ARM GAS  C:\Users\mau_g\AppData\Local\Temp\ccyrSPLo.s 			page 17


 253:.\Source\rte/sc_clock.h **** /**************************************************************************************************
 254:.\Source\rte/sc_clock.h **** 
 255:.\Source\rte/sc_clock.h **** /**
 256:.\Source\rte/sc_clock.h ****  * Returns the current application value of the passed signal instance.
 257:.\Source\rte/sc_clock.h ****  *
 258:.\Source\rte/sc_clock.h ****  * @param  SC_CLOCK_t * const signal: Pointer to the signal object
 259:.\Source\rte/sc_clock.h ****  * @return sc_clock_data_t: current value of the application data buffer
 260:.\Source\rte/sc_clock.h ****  *
 261:.\Source\rte/sc_clock.h ****  **/
 262:.\Source\rte/sc_clock.h **** inline SC_CLOCK_data_t RTE_SC_CLOCK_get( const SC_CLOCK_t * const signal )
 263:.\Source\rte/sc_clock.h **** {               
 264:.\Source\rte/sc_clock.h ****    //Todo: Critical region cannot be protected using return values																						
 265:.\Source\rte/sc_clock.h ****    return signal->value;                                                                           
 222              		.loc 3 265 0
 223 0004 334A     		ldr	r2, .L29
 224 0006 03AB     		add	r3, sp, #12
 225 0008 07CA     		ldmia	r2, {r0, r1, r2}
 226              	.LVL20:
 227 000a 03C3     		stmia	r3!, {r0, r1}
 228 000c 1A70     		strb	r2, [r3]
 229              	.LVL21:
 230 000e 6B46     		mov	r3, sp
 231 0010 06AA     		add	r2, sp, #24
 232 0012 12E90700 		ldmdb	r2, {r0, r1, r2}
 233 0016 03C3     		stmia	r3!, {r0, r1}
 234 0018 1A70     		strb	r2, [r3]
 235              	.LVL22:
 236              	.LBE25:
 237              	.LBE24:
 238              	.LBB26:
 239              	.LBB27:
 266:.\Source\rte/sc_clock.h **** }                                                                                                  
 267:.\Source\rte/sc_clock.h ****                                                                                                    
 268:.\Source\rte/sc_clock.h **** /**
 269:.\Source\rte/sc_clock.h ****  * Returns the current application value of the passed signal instance threadsafe.
 270:.\Source\rte/sc_clock.h ****  *
 271:.\Source\rte/sc_clock.h ****  * @param  SC_CLOCK_t * const signal: Pointer to the signal object
 272:.\Source\rte/sc_clock.h ****  * @param  SC_CLOCK_data_t* data: Pointer to the return data Pointer to the signal object
 273:.\Source\rte/sc_clock.h ****  * @return RC_SUCCESS
 274:.\Source\rte/sc_clock.h ****  *
 275:.\Source\rte/sc_clock.h ****  **/
 276:.\Source\rte/sc_clock.h **** inline RC_t RTE_SC_CLOCK_getThreadSafe( const SC_CLOCK_t * const signal, SC_CLOCK_data_t * const da
 277:.\Source\rte/sc_clock.h **** {    
 278:.\Source\rte/sc_clock.h ****    if (TRUE == signal->pSigCfg->resourceActive) GetResource(signal->pSigCfg->resource);
 279:.\Source\rte/sc_clock.h ****    *data = signal->value;
 280:.\Source\rte/sc_clock.h ****    if (TRUE == signal->pSigCfg->resourceActive) ReleaseResource(signal->pSigCfg->resource);        
 281:.\Source\rte/sc_clock.h **** 
 282:.\Source\rte/sc_clock.h ****    return RC_SUCCESS;                                                                   
 283:.\Source\rte/sc_clock.h ****    
 284:.\Source\rte/sc_clock.h **** }                                                                                                  
 285:.\Source\rte/sc_clock.h ****                                                                                                    
 286:.\Source\rte/sc_clock.h **** /**
 287:.\Source\rte/sc_clock.h ****  * Sets a new application value to the passed signal instance by passing the new value.
 288:.\Source\rte/sc_clock.h ****  * The corresponding driver raw value will be calculated immediately by using the default conversio
 289:.\Source\rte/sc_clock.h ****  * signal specific scaling function.
 290:.\Source\rte/sc_clock.h ****  * The signal age will be set to 0 and the new status will be 'RTE_SIGNALSTATUS_VALID'.
 291:.\Source\rte/sc_clock.h ****  *
ARM GAS  C:\Users\mau_g\AppData\Local\Temp\ccyrSPLo.s 			page 18


 292:.\Source\rte/sc_clock.h ****  * @param  SC_CLOCK_t * const signal: Pointer to the signal object
 293:.\Source\rte/sc_clock.h ****  * @param  sc_clock_data_t const value: value for the application data buffer
 294:.\Source\rte/sc_clock.h ****  * @return RC_t: standard return code, currently only RC_SUCCESS
 295:.\Source\rte/sc_clock.h ****  *
 296:.\Source\rte/sc_clock.h ****  **/
 297:.\Source\rte/sc_clock.h **** inline RC_t RTE_SC_CLOCK_set(SC_CLOCK_t * const signal, const SC_CLOCK_data_t value  )
 298:.\Source\rte/sc_clock.h **** {
 299:.\Source\rte/sc_clock.h **** 
 300:.\Source\rte/sc_clock.h ****    RC_t ret = RC_SUCCESS;
 301:.\Source\rte/sc_clock.h ****    size_t taskNum=0;
 302:.\Source\rte/sc_clock.h **** 
 303:.\Source\rte/sc_clock.h **** 
 304:.\Source\rte/sc_clock.h ****    if (TRUE == signal->pSigCfg->resourceActive) GetResource(signal->pSigCfg->resource);
 240              		.loc 3 304 0
 241 001a 2F4B     		ldr	r3, .L29+4
 242 001c 1B69     		ldr	r3, [r3, #16]
 243 001e 93F82020 		ldrb	r2, [r3, #32]	@ zero_extendqisi2
 244 0022 012A     		cmp	r2, #1
 245 0024 02D1     		bne	.L19
 246 0026 586A     		ldr	r0, [r3, #36]
 247 0028 FFF7FEFF 		bl	EE_oo_GetResource
 248              	.LVL23:
 249              	.L19:
 305:.\Source\rte/sc_clock.h ****    signal->value  = value;
 250              		.loc 3 305 0
 251 002c 2A4C     		ldr	r4, .L29+4
 252 002e 2346     		mov	r3, r4
 253 0030 9DE80700 		ldmia	sp, {r0, r1, r2}
 254 0034 03C3     		stmia	r3!, {r0, r1}
 255 0036 1A70     		strb	r2, [r3]
 306:.\Source\rte/sc_clock.h ****    signal->age    = 0;
 256              		.loc 3 306 0
 257 0038 0023     		movs	r3, #0
 258 003a E360     		str	r3, [r4, #12]
 307:.\Source\rte/sc_clock.h ****    signal->status = RTE_SIGNALSTATUS_VALID;
 259              		.loc 3 307 0
 260 003c 0223     		movs	r3, #2
 261 003e 6372     		strb	r3, [r4, #9]
 308:.\Source\rte/sc_clock.h ****    if (TRUE == signal->pSigCfg->resourceActive) ReleaseResource(signal->pSigCfg->resource);
 262              		.loc 3 308 0
 263 0040 2369     		ldr	r3, [r4, #16]
 264 0042 93F82020 		ldrb	r2, [r3, #32]	@ zero_extendqisi2
 265 0046 012A     		cmp	r2, #1
 266 0048 02D1     		bne	.L20
 267 004a 586A     		ldr	r0, [r3, #36]
 268 004c FFF7FEFF 		bl	EE_oo_ReleaseResource
 269              	.LVL24:
 270              	.L20:
 309:.\Source\rte/sc_clock.h **** 
 310:.\Source\rte/sc_clock.h ****    //Pointer to the Taskarray, containing the tasks receiving the onUpdate events
 311:.\Source\rte/sc_clock.h ****    TaskTypeArray* pTaskArray = signal->pSigCfg->onUpdateTasks;
 271              		.loc 3 311 0
 272 0050 214B     		ldr	r3, .L29+4
 273 0052 1B69     		ldr	r3, [r3, #16]
 274 0054 5D69     		ldr	r5, [r3, #20]
 275              	.LVL25:
 312:.\Source\rte/sc_clock.h **** 
ARM GAS  C:\Users\mau_g\AppData\Local\Temp\ccyrSPLo.s 			page 19


 313:.\Source\rte/sc_clock.h ****    if (NULL!=signal->pSigCfg->evOnUpdate && NULL != pTaskArray){
 276              		.loc 3 313 0
 277 0056 9B68     		ldr	r3, [r3, #8]
 278 0058 73B1     		cbz	r3, .L21
 279 005a 3DB9     		cbnz	r5, .L27
 280 005c 0CE0     		b	.L21
 281              	.LVL26:
 282              	.L23:
 283              	.LBB28:
 314:.\Source\rte/sc_clock.h ****       for( taskNum=0 ; taskNum < signal->pSigCfg->onUpdateTaskCount ;taskNum++){
 315:.\Source\rte/sc_clock.h **** 		  
 316:.\Source\rte/sc_clock.h ****           TaskType task = (*pTaskArray)[taskNum];
 317:.\Source\rte/sc_clock.h **** 	      SetEvent( task, signal->pSigCfg->evOnUpdate);
 284              		.loc 3 317 0
 285 005e 9968     		ldr	r1, [r3, #8]
 286 0060 55F82400 		ldr	r0, [r5, r4, lsl #2]
 287 0064 FFF7FEFF 		bl	EE_oo_SetEvent
 288              	.LVL27:
 289              	.LBE28:
 314:.\Source\rte/sc_clock.h ****       for( taskNum=0 ; taskNum < signal->pSigCfg->onUpdateTaskCount ;taskNum++){
 290              		.loc 3 314 0
 291 0068 0134     		adds	r4, r4, #1
 292              	.LVL28:
 293 006a 00E0     		b	.L22
 294              	.LVL29:
 295              	.L27:
 313:.\Source\rte/sc_clock.h ****       for( taskNum=0 ; taskNum < signal->pSigCfg->onUpdateTaskCount ;taskNum++){
 296              		.loc 3 313 0
 297 006c 0024     		movs	r4, #0
 298              	.LVL30:
 299              	.L22:
 314:.\Source\rte/sc_clock.h ****       for( taskNum=0 ; taskNum < signal->pSigCfg->onUpdateTaskCount ;taskNum++){
 300              		.loc 3 314 0
 301 006e 1A4B     		ldr	r3, .L29+4
 302 0070 1B69     		ldr	r3, [r3, #16]
 303 0072 1A69     		ldr	r2, [r3, #16]
 304 0074 9442     		cmp	r4, r2
 305 0076 F2D3     		bcc	.L23
 306              	.LVL31:
 307              	.L21:
 308              	.LBE27:
 309              	.LBE26:
 120:Source\asw/swc_clock.c **** 	
 121:Source\asw/swc_clock.c **** 	/* USER CODE START CLOCK_display_run */
 122:Source\asw/swc_clock.c ****     
 123:Source\asw/swc_clock.c **** //    SC_EVENT_data_t myEvent = RTE_SC_EVENT_get(&SO_EVENT_signal);
 124:Source\asw/swc_clock.c **** //    
 125:Source\asw/swc_clock.c **** //    switch(myEvent.m_ev)
 126:Source\asw/swc_clock.c **** //    {
 127:Source\asw/swc_clock.c **** //        case EV_KEYLEFT:
 128:Source\asw/swc_clock.c **** //            UART_LOG_PutString("LEFT BUTTON \n");
 129:Source\asw/swc_clock.c **** //        break;
 130:Source\asw/swc_clock.c **** //            
 131:Source\asw/swc_clock.c **** //        case EV_KEYRIGHT:
 132:Source\asw/swc_clock.c **** //            UART_LOG_PutString("RIGHT BUTTON \n");
 133:Source\asw/swc_clock.c **** //        break;
 134:Source\asw/swc_clock.c **** //            
ARM GAS  C:\Users\mau_g\AppData\Local\Temp\ccyrSPLo.s 			page 20


 135:Source\asw/swc_clock.c **** //        case EV_KEYRIGHTLONGPRESS:
 136:Source\asw/swc_clock.c **** //            UART_LOG_PutString("LONG RIGHT BUTTON \n");
 137:Source\asw/swc_clock.c **** //        break;
 138:Source\asw/swc_clock.c **** //            
 139:Source\asw/swc_clock.c **** //        case EV_250MS:
 140:Source\asw/swc_clock.c **** //            UART_LOG_PutString("250 MS\n");
 141:Source\asw/swc_clock.c **** //        break;
 142:Source\asw/swc_clock.c **** //            
 143:Source\asw/swc_clock.c **** //        case EV_1MIN:
 144:Source\asw/swc_clock.c **** //            UART_LOG_PutString("1 MINUTE \n");
 145:Source\asw/swc_clock.c **** //        break;
 146:Source\asw/swc_clock.c **** //            
 147:Source\asw/swc_clock.c **** //        case EV_NONE:
 148:Source\asw/swc_clock.c **** //            break;
 149:Source\asw/swc_clock.c **** //            
 150:Source\asw/swc_clock.c **** //        default: 
 151:Source\asw/swc_clock.c **** //        break;      
 152:Source\asw/swc_clock.c **** //    }
 153:Source\asw/swc_clock.c ****     
 154:Source\asw/swc_clock.c ****     static boolean_t hourEditing   = FALSE;
 155:Source\asw/swc_clock.c ****     static boolean_t minuteEditing = FALSE;
 156:Source\asw/swc_clock.c ****     
 157:Source\asw/swc_clock.c ****     static uint8_t hourValue   = 0;
 158:Source\asw/swc_clock.c ****     static uint8_t minuteValue = 0;
 159:Source\asw/swc_clock.c ****     
 160:Source\asw/swc_clock.c ****     SC_CLOCK_data_t myClock = RTE_SC_CLOCK_get(&SO_CLOCK_signal);
 161:Source\asw/swc_clock.c ****     
 162:Source\asw/swc_clock.c ****     RTE_SC_CLOCK_set(&SO_CLOCK_DISPLAY_signal, myClock);
 163:Source\asw/swc_clock.c ****     
 164:Source\asw/swc_clock.c ****     if (hourValue != myClock.m_hours.m_currentValue || minuteValue != myClock.m_minutes.m_currentVa
 310              		.loc 1 164 0
 311 0078 9DF80D40 		ldrb	r4, [sp, #13]	@ zero_extendqisi2
 312 007c 174B     		ldr	r3, .L29+8
 313 007e 9B78     		ldrb	r3, [r3, #2]	@ zero_extendqisi2
 314 0080 9C42     		cmp	r4, r3
 315 0082 11D1     		bne	.L24
 316              		.loc 1 164 0 is_stmt 0 discriminator 1
 317 0084 9DF81120 		ldrb	r2, [sp, #17]	@ zero_extendqisi2
 318 0088 144B     		ldr	r3, .L29+8
 319 008a DB78     		ldrb	r3, [r3, #3]	@ zero_extendqisi2
 320 008c 9A42     		cmp	r2, r3
 321 008e 0BD1     		bne	.L24
 322              		.loc 1 164 0 discriminator 2
 323 0090 9DF81020 		ldrb	r2, [sp, #16]	@ zero_extendqisi2
 324 0094 114B     		ldr	r3, .L29+8
 325 0096 1B79     		ldrb	r3, [r3, #4]	@ zero_extendqisi2
 326 0098 9A42     		cmp	r2, r3
 327 009a 05D1     		bne	.L24
 328              		.loc 1 164 0 discriminator 3
 329 009c 9DF81420 		ldrb	r2, [sp, #20]	@ zero_extendqisi2
 330 00a0 0E4B     		ldr	r3, .L29+8
 331 00a2 5B79     		ldrb	r3, [r3, #5]	@ zero_extendqisi2
 332 00a4 9A42     		cmp	r2, r3
 333 00a6 12D0     		beq	.L18
 334              	.L24:
 335              	.LVL32:
 336              	.LBB29:
ARM GAS  C:\Users\mau_g\AppData\Local\Temp\ccyrSPLo.s 			page 21


 337              	.LBB30:
 318:.\Source\rte/sc_clock.h ****       }
 319:.\Source\rte/sc_clock.h ****    }
 320:.\Source\rte/sc_clock.h **** 
 321:.\Source\rte/sc_clock.h ****    return ret;
 322:.\Source\rte/sc_clock.h **** }                                                                                                  
 323:.\Source\rte/sc_clock.h ****                                                                                                    
 324:.\Source\rte/sc_clock.h ****                                                                                                    
 325:.\Source\rte/sc_clock.h **** /**************************************************************************************************
 326:.\Source\rte/sc_clock.h **** /* Call functions to the connected drivers																			*/
 327:.\Source\rte/sc_clock.h **** /**************************************************************************************************
 328:.\Source\rte/sc_clock.h **** 
 329:.\Source\rte/sc_clock.h ****                                                                                                    
 330:.\Source\rte/sc_clock.h **** /**
 331:.\Source\rte/sc_clock.h ****  *  Calls the connected driver interface to get a new value.
 332:.\Source\rte/sc_clock.h ****  *
 333:.\Source\rte/sc_clock.h ****  * @param SC_CLOCK_t * const signal: Pointer to the signal object
 334:.\Source\rte/sc_clock.h ****  * @return  RC_t: Return value of the driver call
 335:.\Source\rte/sc_clock.h ****  *
 336:.\Source\rte/sc_clock.h ****  */
 337:.\Source\rte/sc_clock.h **** inline RC_t RTE_SC_CLOCK_pullPort( SC_CLOCK_t * const signal )
 338:.\Source\rte/sc_clock.h **** {                                                                                                  
 339:.\Source\rte/sc_clock.h ****    RC_t ret = RC_SUCCESS;
 340:.\Source\rte/sc_clock.h **** 
 341:.\Source\rte/sc_clock.h ****                                                                                                    
 342:.\Source\rte/sc_clock.h ****    if ( NULL != signal->pSigCfg->inDriver )
 343:.\Source\rte/sc_clock.h ****    {
 344:.\Source\rte/sc_clock.h **** 	  SC_CLOCK_data_t value = signal->value;
 345:.\Source\rte/sc_clock.h ****       ret = signal->pSigCfg->inDriver(&value);
 346:.\Source\rte/sc_clock.h ****                                                                                                    
 347:.\Source\rte/sc_clock.h ****       if ( ret == RC_SUCCESS )                                                                     
 348:.\Source\rte/sc_clock.h ****       {
 349:.\Source\rte/sc_clock.h ****     	  //Critical Section
 350:.\Source\rte/sc_clock.h ****     	  RTE_SC_CLOCK_set(signal, value);
 351:.\Source\rte/sc_clock.h ****       }
 352:.\Source\rte/sc_clock.h ****       else
 353:.\Source\rte/sc_clock.h ****       {
 354:.\Source\rte/sc_clock.h **** 		  //Signal is invalid. Error event (if present) will be fired
 355:.\Source\rte/sc_clock.h **** 		  RTE_SC_CLOCK_setStatus(signal, RTE_SIGNALSTATUS_INVALID);
 356:.\Source\rte/sc_clock.h ****       }
 357:.\Source\rte/sc_clock.h **** 
 358:.\Source\rte/sc_clock.h ****    }                                                                                               
 359:.\Source\rte/sc_clock.h ****                                                                                                    
 360:.\Source\rte/sc_clock.h ****    return ret;                                                                                     
 361:.\Source\rte/sc_clock.h **** }                                                                                                  
 362:.\Source\rte/sc_clock.h ****                                                                                                    
 363:.\Source\rte/sc_clock.h **** /**
 364:.\Source\rte/sc_clock.h ****  *  Calls the connected driver interfaces to send a value. Value will not be sent if it is INVALID.
 365:.\Source\rte/sc_clock.h ****  *
 366:.\Source\rte/sc_clock.h ****  * @param SC_CLOCK_t * const signal: Pointer to the signal object
 367:.\Source\rte/sc_clock.h ****  * @return  RC_t: Return value of the driver call
 368:.\Source\rte/sc_clock.h ****  *
 369:.\Source\rte/sc_clock.h ****  **/
 370:.\Source\rte/sc_clock.h **** inline RC_t RTE_SC_CLOCK_pushPort( const SC_CLOCK_t * const signal )
 371:.\Source\rte/sc_clock.h **** {                                                                                                  
 372:.\Source\rte/sc_clock.h ****    RC_t ret = RC_ERROR;
 373:.\Source\rte/sc_clock.h **** 
ARM GAS  C:\Users\mau_g\AppData\Local\Temp\ccyrSPLo.s 			page 22


 374:.\Source\rte/sc_clock.h ****    if (RTE_SIGNALSTATUS_VALID == signal->status)
 338              		.loc 3 374 0 is_stmt 1
 339 00a8 0B4B     		ldr	r3, .L29+4
 340 00aa 5B7A     		ldrb	r3, [r3, #9]	@ zero_extendqisi2
 341 00ac 022B     		cmp	r3, #2
 342 00ae 03D1     		bne	.L26
 375:.\Source\rte/sc_clock.h ****    {
 376:.\Source\rte/sc_clock.h **** 	   ret = signal->pSigCfg->outDriver(&(signal->value));
 343              		.loc 3 376 0
 344 00b0 0948     		ldr	r0, .L29+4
 345 00b2 0369     		ldr	r3, [r0, #16]
 346 00b4 5B68     		ldr	r3, [r3, #4]
 347 00b6 9847     		blx	r3
 348              	.LVL33:
 349              	.L26:
 350              	.LBE30:
 351              	.LBE29:
 165:Source\asw/swc_clock.c ****     {
 166:Source\asw/swc_clock.c ****         RTE_SC_CLOCK_pushPort(&SO_CLOCK_DISPLAY_signal);
 167:Source\asw/swc_clock.c ****         
 168:Source\asw/swc_clock.c ****         hourValue     = myClock.m_hours.m_currentValue;
 352              		.loc 1 168 0
 353 00b8 084B     		ldr	r3, .L29+8
 354 00ba 9C70     		strb	r4, [r3, #2]
 169:Source\asw/swc_clock.c ****         minuteValue   = myClock.m_minutes.m_currentValue;
 355              		.loc 1 169 0
 356 00bc 9DF81120 		ldrb	r2, [sp, #17]	@ zero_extendqisi2
 357 00c0 DA70     		strb	r2, [r3, #3]
 170:Source\asw/swc_clock.c ****         
 171:Source\asw/swc_clock.c ****         hourEditing   = myClock.m_hours.m_fontEditing;
 358              		.loc 1 171 0
 359 00c2 9DF81020 		ldrb	r2, [sp, #16]	@ zero_extendqisi2
 360 00c6 1A71     		strb	r2, [r3, #4]
 172:Source\asw/swc_clock.c ****         minuteEditing = myClock.m_minutes.m_fontEditing;
 361              		.loc 1 172 0
 362 00c8 9DF81420 		ldrb	r2, [sp, #20]	@ zero_extendqisi2
 363 00cc 5A71     		strb	r2, [r3, #5]
 364              	.L18:
 173:Source\asw/swc_clock.c ****     }
 174:Source\asw/swc_clock.c ****     else
 175:Source\asw/swc_clock.c ****     {
 176:Source\asw/swc_clock.c ****         //Intended to do nothing.
 177:Source\asw/swc_clock.c ****     }
 178:Source\asw/swc_clock.c ****         
 179:Source\asw/swc_clock.c ****     /* USER CODE END CLOCK_display_run */
 180:Source\asw/swc_clock.c **** }
 365              		.loc 1 180 0
 366 00ce 07B0     		add	sp, sp, #28
 367              		.cfi_def_cfa_offset 12
 368              		@ sp needed
 369 00d0 30BD     		pop	{r4, r5, pc}
 370              	.L30:
 371 00d2 00BF     		.align	2
 372              	.L29:
 373 00d4 00000000 		.word	SO_CLOCK_signal
 374 00d8 00000000 		.word	SO_CLOCK_DISPLAY_signal
 375 00dc 00000000 		.word	.LANCHOR0
ARM GAS  C:\Users\mau_g\AppData\Local\Temp\ccyrSPLo.s 			page 23


 376              		.cfi_endproc
 377              	.LFE143:
 378              		.size	CLOCK_display_run, .-CLOCK_display_run
 379              		.section	.text.clbk_1s,"ax",%progbits
 380              		.align	2
 381              		.global	clbk_1s
 382              		.thumb
 383              		.thumb_func
 384              		.type	clbk_1s, %function
 385              	clbk_1s:
 386              	.LFB144:
 181:Source\asw/swc_clock.c **** 
 182:Source\asw/swc_clock.c **** /* USER CODE START SWC_CLOCK_FUNCTIONS */
 183:Source\asw/swc_clock.c **** 
 184:Source\asw/swc_clock.c **** //Calback Function for the 1 Minute alarm
 185:Source\asw/swc_clock.c **** void clbk_1s()
 186:Source\asw/swc_clock.c **** {
 387              		.loc 1 186 0
 388              		.cfi_startproc
 389              		@ args = 0, pretend = 0, frame = 0
 390              		@ frame_needed = 0, uses_anonymous_args = 0
 391 0000 38B5     		push	{r3, r4, r5, lr}
 392              		.cfi_def_cfa_offset 16
 393              		.cfi_offset 3, -16
 394              		.cfi_offset 4, -12
 395              		.cfi_offset 5, -8
 396              		.cfi_offset 14, -4
 187:Source\asw/swc_clock.c ****     static uint8_t secondCounter = 0;
 188:Source\asw/swc_clock.c ****     
 189:Source\asw/swc_clock.c ****     secondCounter++;
 397              		.loc 1 189 0
 398 0002 1B4A     		ldr	r2, .L40
 399 0004 9379     		ldrb	r3, [r2, #6]	@ zero_extendqisi2
 400 0006 0133     		adds	r3, r3, #1
 401 0008 DBB2     		uxtb	r3, r3
 402 000a 9371     		strb	r3, [r2, #6]
 190:Source\asw/swc_clock.c ****     
 191:Source\asw/swc_clock.c ****     if(60 <= secondCounter)
 403              		.loc 1 191 0
 404 000c 3B2B     		cmp	r3, #59
 405 000e 2ED9     		bls	.L31
 406              	.LBB31:
 192:Source\asw/swc_clock.c ****     {
 193:Source\asw/swc_clock.c ****         SC_EVENT_data_t myEv;
 194:Source\asw/swc_clock.c ****         myEv.m_ev = EV_1MIN;  
 195:Source\asw/swc_clock.c ****         secondCounter = 0;
 407              		.loc 1 195 0
 408 0010 0022     		movs	r2, #0
 409 0012 174B     		ldr	r3, .L40
 410 0014 9A71     		strb	r2, [r3, #6]
 411              	.LVL34:
 412              	.LBB32:
 413              	.LBB33:
 304:.\Source\rte/sc_event.h ****    signal->value  = value;
 414              		.loc 2 304 0
 415 0016 174B     		ldr	r3, .L40+4
 416 0018 9B68     		ldr	r3, [r3, #8]
ARM GAS  C:\Users\mau_g\AppData\Local\Temp\ccyrSPLo.s 			page 24


 417 001a 93F82020 		ldrb	r2, [r3, #32]	@ zero_extendqisi2
 418 001e 012A     		cmp	r2, #1
 419 0020 02D1     		bne	.L33
 420 0022 586A     		ldr	r0, [r3, #36]
 421 0024 FFF7FEFF 		bl	EE_oo_GetResource
 422              	.LVL35:
 423              	.L33:
 305:.\Source\rte/sc_event.h ****    signal->age    = 0;
 424              		.loc 2 305 0
 425 0028 124B     		ldr	r3, .L40+4
 426 002a 0522     		movs	r2, #5
 427 002c 1A70     		strb	r2, [r3]
 306:.\Source\rte/sc_event.h ****    signal->status = RTE_SIGNALSTATUS_VALID;
 428              		.loc 2 306 0
 429 002e 0022     		movs	r2, #0
 430 0030 5A60     		str	r2, [r3, #4]
 307:.\Source\rte/sc_event.h ****    if (TRUE == signal->pSigCfg->resourceActive) ReleaseResource(signal->pSigCfg->resource);
 431              		.loc 2 307 0
 432 0032 0222     		movs	r2, #2
 433 0034 5A70     		strb	r2, [r3, #1]
 308:.\Source\rte/sc_event.h **** 
 434              		.loc 2 308 0
 435 0036 9B68     		ldr	r3, [r3, #8]
 436 0038 93F82020 		ldrb	r2, [r3, #32]	@ zero_extendqisi2
 437 003c 012A     		cmp	r2, #1
 438 003e 02D1     		bne	.L34
 439 0040 586A     		ldr	r0, [r3, #36]
 440 0042 FFF7FEFF 		bl	EE_oo_ReleaseResource
 441              	.LVL36:
 442              	.L34:
 311:.\Source\rte/sc_event.h **** 
 443              		.loc 2 311 0
 444 0046 0B4B     		ldr	r3, .L40+4
 445 0048 9B68     		ldr	r3, [r3, #8]
 446 004a 5D69     		ldr	r5, [r3, #20]
 447              	.LVL37:
 313:.\Source\rte/sc_event.h ****       for( taskNum=0 ; taskNum < signal->pSigCfg->onUpdateTaskCount ;taskNum++){
 448              		.loc 2 313 0
 449 004c 9B68     		ldr	r3, [r3, #8]
 450 004e 73B1     		cbz	r3, .L31
 451 0050 3DB9     		cbnz	r5, .L38
 452 0052 38BD     		pop	{r3, r4, r5, pc}
 453              	.LVL38:
 454              	.L37:
 455              	.LBB34:
 456              		.loc 2 317 0
 457 0054 9968     		ldr	r1, [r3, #8]
 458 0056 55F82400 		ldr	r0, [r5, r4, lsl #2]
 459 005a FFF7FEFF 		bl	EE_oo_SetEvent
 460              	.LVL39:
 461              	.LBE34:
 314:.\Source\rte/sc_event.h **** 		  
 462              		.loc 2 314 0
 463 005e 0134     		adds	r4, r4, #1
 464              	.LVL40:
 465 0060 00E0     		b	.L36
 466              	.LVL41:
ARM GAS  C:\Users\mau_g\AppData\Local\Temp\ccyrSPLo.s 			page 25


 467              	.L38:
 313:.\Source\rte/sc_event.h ****       for( taskNum=0 ; taskNum < signal->pSigCfg->onUpdateTaskCount ;taskNum++){
 468              		.loc 2 313 0
 469 0062 0024     		movs	r4, #0
 470              	.LVL42:
 471              	.L36:
 314:.\Source\rte/sc_event.h **** 		  
 472              		.loc 2 314 0
 473 0064 034B     		ldr	r3, .L40+4
 474 0066 9B68     		ldr	r3, [r3, #8]
 475 0068 1A69     		ldr	r2, [r3, #16]
 476 006a 9442     		cmp	r4, r2
 477 006c F2D3     		bcc	.L37
 478              	.LVL43:
 479              	.L31:
 480 006e 38BD     		pop	{r3, r4, r5, pc}
 481              	.L41:
 482              		.align	2
 483              	.L40:
 484 0070 00000000 		.word	.LANCHOR0
 485 0074 00000000 		.word	SO_EVENT_signal
 486              	.LBE33:
 487              	.LBE32:
 488              	.LBE31:
 489              		.cfi_endproc
 490              	.LFE144:
 491              		.size	clbk_1s, .-clbk_1s
 492              		.section	.text.clbk_250ms,"ax",%progbits
 493              		.align	2
 494              		.global	clbk_250ms
 495              		.thumb
 496              		.thumb_func
 497              		.type	clbk_250ms, %function
 498              	clbk_250ms:
 499              	.LFB145:
 196:Source\asw/swc_clock.c ****         RTE_SC_EVENT_set(&SO_EVENT_signal, myEv);
 197:Source\asw/swc_clock.c ****     }
 198:Source\asw/swc_clock.c ****     else
 199:Source\asw/swc_clock.c ****     {
 200:Source\asw/swc_clock.c ****         //Intended to do nothing.
 201:Source\asw/swc_clock.c ****     }
 202:Source\asw/swc_clock.c **** }
 203:Source\asw/swc_clock.c **** 
 204:Source\asw/swc_clock.c **** //Calback Function for the 250 ms alarm
 205:Source\asw/swc_clock.c **** void clbk_250ms()
 206:Source\asw/swc_clock.c **** {
 500              		.loc 1 206 0
 501              		.cfi_startproc
 502              		@ args = 0, pretend = 0, frame = 0
 503              		@ frame_needed = 0, uses_anonymous_args = 0
 504 0000 38B5     		push	{r3, r4, r5, lr}
 505              		.cfi_def_cfa_offset 16
 506              		.cfi_offset 3, -16
 507              		.cfi_offset 4, -12
 508              		.cfi_offset 5, -8
 509              		.cfi_offset 14, -4
 510              	.LVL44:
ARM GAS  C:\Users\mau_g\AppData\Local\Temp\ccyrSPLo.s 			page 26


 511              	.LBB35:
 512              	.LBB36:
 304:.\Source\rte/sc_event.h ****    signal->value  = value;
 513              		.loc 2 304 0
 514 0002 164B     		ldr	r3, .L50
 515 0004 9B68     		ldr	r3, [r3, #8]
 516 0006 93F82020 		ldrb	r2, [r3, #32]	@ zero_extendqisi2
 517 000a 012A     		cmp	r2, #1
 518 000c 02D1     		bne	.L43
 519 000e 586A     		ldr	r0, [r3, #36]
 520 0010 FFF7FEFF 		bl	EE_oo_GetResource
 521              	.LVL45:
 522              	.L43:
 305:.\Source\rte/sc_event.h ****    signal->age    = 0;
 523              		.loc 2 305 0
 524 0014 114B     		ldr	r3, .L50
 525 0016 0422     		movs	r2, #4
 526 0018 1A70     		strb	r2, [r3]
 306:.\Source\rte/sc_event.h ****    signal->status = RTE_SIGNALSTATUS_VALID;
 527              		.loc 2 306 0
 528 001a 0022     		movs	r2, #0
 529 001c 5A60     		str	r2, [r3, #4]
 307:.\Source\rte/sc_event.h ****    if (TRUE == signal->pSigCfg->resourceActive) ReleaseResource(signal->pSigCfg->resource);
 530              		.loc 2 307 0
 531 001e 0222     		movs	r2, #2
 532 0020 5A70     		strb	r2, [r3, #1]
 308:.\Source\rte/sc_event.h **** 
 533              		.loc 2 308 0
 534 0022 9B68     		ldr	r3, [r3, #8]
 535 0024 93F82020 		ldrb	r2, [r3, #32]	@ zero_extendqisi2
 536 0028 012A     		cmp	r2, #1
 537 002a 02D1     		bne	.L44
 538 002c 586A     		ldr	r0, [r3, #36]
 539 002e FFF7FEFF 		bl	EE_oo_ReleaseResource
 540              	.LVL46:
 541              	.L44:
 311:.\Source\rte/sc_event.h **** 
 542              		.loc 2 311 0
 543 0032 0A4B     		ldr	r3, .L50
 544 0034 9B68     		ldr	r3, [r3, #8]
 545 0036 5D69     		ldr	r5, [r3, #20]
 546              	.LVL47:
 313:.\Source\rte/sc_event.h ****       for( taskNum=0 ; taskNum < signal->pSigCfg->onUpdateTaskCount ;taskNum++){
 547              		.loc 2 313 0
 548 0038 9B68     		ldr	r3, [r3, #8]
 549 003a 73B1     		cbz	r3, .L42
 550 003c 3DB9     		cbnz	r5, .L48
 551 003e 38BD     		pop	{r3, r4, r5, pc}
 552              	.LVL48:
 553              	.L47:
 554              	.LBB37:
 555              		.loc 2 317 0
 556 0040 9968     		ldr	r1, [r3, #8]
 557 0042 55F82400 		ldr	r0, [r5, r4, lsl #2]
 558 0046 FFF7FEFF 		bl	EE_oo_SetEvent
 559              	.LVL49:
 560              	.LBE37:
ARM GAS  C:\Users\mau_g\AppData\Local\Temp\ccyrSPLo.s 			page 27


 314:.\Source\rte/sc_event.h **** 		  
 561              		.loc 2 314 0
 562 004a 0134     		adds	r4, r4, #1
 563              	.LVL50:
 564 004c 00E0     		b	.L46
 565              	.LVL51:
 566              	.L48:
 313:.\Source\rte/sc_event.h ****       for( taskNum=0 ; taskNum < signal->pSigCfg->onUpdateTaskCount ;taskNum++){
 567              		.loc 2 313 0
 568 004e 0024     		movs	r4, #0
 569              	.LVL52:
 570              	.L46:
 314:.\Source\rte/sc_event.h **** 		  
 571              		.loc 2 314 0
 572 0050 024B     		ldr	r3, .L50
 573 0052 9B68     		ldr	r3, [r3, #8]
 574 0054 1A69     		ldr	r2, [r3, #16]
 575 0056 9442     		cmp	r4, r2
 576 0058 F2D3     		bcc	.L47
 577              	.LVL53:
 578              	.L42:
 579 005a 38BD     		pop	{r3, r4, r5, pc}
 580              	.LVL54:
 581              	.L51:
 582              		.align	2
 583              	.L50:
 584 005c 00000000 		.word	SO_EVENT_signal
 585              	.LBE36:
 586              	.LBE35:
 587              		.cfi_endproc
 588              	.LFE145:
 589              		.size	clbk_250ms, .-clbk_250ms
 590              		.bss
 591              		.align	1
 592              		.set	.LANCHOR0,. + 0
 593              		.type	timeCounter.8669, %object
 594              		.size	timeCounter.8669, 2
 595              	timeCounter.8669:
 596 0000 0000     		.space	2
 597              		.type	hourValue.8679, %object
 598              		.size	hourValue.8679, 1
 599              	hourValue.8679:
 600 0002 00       		.space	1
 601              		.type	minuteValue.8680, %object
 602              		.size	minuteValue.8680, 1
 603              	minuteValue.8680:
 604 0003 00       		.space	1
 605              		.type	hourEditing.8677, %object
 606              		.size	hourEditing.8677, 1
 607              	hourEditing.8677:
 608 0004 00       		.space	1
 609              		.type	minuteEditing.8678, %object
 610              		.size	minuteEditing.8678, 1
 611              	minuteEditing.8678:
 612 0005 00       		.space	1
 613              		.type	secondCounter.8684, %object
 614              		.size	secondCounter.8684, 1
ARM GAS  C:\Users\mau_g\AppData\Local\Temp\ccyrSPLo.s 			page 28


 615              	secondCounter.8684:
 616 0006 00       		.space	1
 617              		.text
 618              	.Letext0:
 619              		.file 4 "c:\\program files (x86)\\cypress\\psoc creator\\4.4\\psoc creator\\import\\gnu\\arm\\5.4.
 620              		.file 5 "c:\\program files (x86)\\cypress\\psoc creator\\4.4\\psoc creator\\import\\gnu\\arm\\5.4.
 621              		.file 6 "c:\\program files (x86)\\cypress\\psoc creator\\4.4\\psoc creator\\import\\gnu\\arm\\5.4.
 622              		.file 7 "Generated_Source\\PSoC5/ErikaOS_1_common_ee_types.inc"
 623              		.file 8 "Generated_Source\\PSoC5/ErikaOS_1_cortex_mx_ee_cpu.inc"
 624              		.file 9 "Generated_Source\\PSoC5/ErikaOS_1_ee_oo_common.inc"
 625              		.file 10 ".\\Source\\bsw/global.h"
 626              		.file 11 ".\\Source\\rte/rte_types.h"
 627              		.file 12 ".\\Source\\rte/rte.h"
 628              		.file 13 ".\\Source\\asw/statemachine.h"
 629              		.file 14 ".\\Source\\rte/sc_event_type.h"
 630              		.file 15 ".\\Source\\rte/sc_button_type.h"
 631              		.file 16 ".\\Source\\rte/sc_clock_type.h"
 632              		.file 17 "Generated_Source\\PSoC5/ErikaOS_1_ee_oo_intfunc.inc"
 633              		.file 18 "Generated_Source\\PSoC5/ErikaOS_1_cortex_mx_ee_context.inc"
 634              		.file 19 "Generated_Source\\PSoC5/ErikaOS_1_common_ee_primitives.inc"
 635              		.file 20 "Generated_Source\\PSoC5/core_cm3.h"
 636              		.file 21 "./clock_type.h"
 637              		.file 22 ".\\Source\\rte/sp_common.h"
 638              		.file 23 "Generated_Source\\PSoC5/ErikaOS_1_ee_oo_kernel.inc"