ARM GAS  C:\Users\mau_g\AppData\Local\Temp\ccZHNTN4.s 			page 1


   1              		.syntax unified
   2              		.cpu cortex-m3
   3              		.fpu softvfp
   4              		.eabi_attribute 20, 1
   5              		.eabi_attribute 21, 1
   6              		.eabi_attribute 23, 3
   7              		.eabi_attribute 24, 1
   8              		.eabi_attribute 25, 1
   9              		.eabi_attribute 26, 1
  10              		.eabi_attribute 30, 1
  11              		.eabi_attribute 34, 1
  12              		.eabi_attribute 18, 4
  13              		.thumb
  14              		.syntax unified
  15              		.file	"tsk_io.c"
  16              		.text
  17              	.Ltext0:
  18              		.cfi_sections	.debug_frame
  19              		.section	.text.Functsk_io,"ax",%progbits
  20              		.align	2
  21              		.global	Functsk_io
  22              		.thumb
  23              		.thumb_func
  24              		.type	Functsk_io, %function
  25              	Functsk_io:
  26              	.LFB141:
  27              		.file 1 "Source\\asw\\tsk_io.c"
   1:Source\asw/tsk_io.c **** 
   2:Source\asw/tsk_io.c **** 
   3:Source\asw/tsk_io.c **** /*
   4:Source\asw/tsk_io.c ****  * Filename: tsk_io.c
   5:Source\asw/tsk_io.c ****  *
   6:Source\asw/tsk_io.c ****  * Author: Autogenerated by H-DA RTE Generator, (c) Prof. Fromm
   7:Source\asw/tsk_io.c ****  */
   8:Source\asw/tsk_io.c **** 
   9:Source\asw/tsk_io.c **** #include "project.h"
  10:Source\asw/tsk_io.c **** #include "global.h"
  11:Source\asw/tsk_io.c **** #include "rte.h"
  12:Source\asw/tsk_io.c **** #include "rte_types.h"
  13:Source\asw/tsk_io.c **** #include "tsk_io.h"
  14:Source\asw/tsk_io.c **** 
  15:Source\asw/tsk_io.c **** 
  16:Source\asw/tsk_io.c **** 
  17:Source\asw/tsk_io.c **** /* USER CODE START TSK_IO_INCLUDE */
  18:Source\asw/tsk_io.c **** #include "sp_common.h"
  19:Source\asw/tsk_io.c **** 
  20:Source\asw/tsk_io.c **** /* USER CODE END TSK_IO_INCLUDE */
  21:Source\asw/tsk_io.c **** 
  22:Source\asw/tsk_io.c **** #include "swc_clock.h"
  23:Source\asw/tsk_io.c **** 
  24:Source\asw/tsk_io.c **** 
  25:Source\asw/tsk_io.c **** 
  26:Source\asw/tsk_io.c **** /* USER CODE START TSK_IO_USERDEFINITIONS */
  27:Source\asw/tsk_io.c **** 
  28:Source\asw/tsk_io.c **** /* USER CODE END TSK_IO_USERDEFINITIONS */
  29:Source\asw/tsk_io.c **** 
  30:Source\asw/tsk_io.c **** /*******************************************************************************
ARM GAS  C:\Users\mau_g\AppData\Local\Temp\ccZHNTN4.s 			page 2


  31:Source\asw/tsk_io.c ****  * Runnable Tables from Activation Engine
  32:Source\asw/tsk_io.c ****  *******************************************************************************/
  33:Source\asw/tsk_io.c **** 
  34:Source\asw/tsk_io.c **** /* Cyclic Table */
  35:Source\asw/tsk_io.c **** 
  36:Source\asw/tsk_io.c **** const RTE_cyclicTable_t RTE_cyclicActivationTable_tsk_io[] = {
  37:Source\asw/tsk_io.c **** 	{ CLOCK_input_run, 50 },	//Runnable
  38:Source\asw/tsk_io.c **** 	{ CLOCK_display_run, 250 },	//Runnable
  39:Source\asw/tsk_io.c **** };
  40:Source\asw/tsk_io.c **** const uint16_t RTE_cyclicActivation_tsk_io_size = sizeof (RTE_cyclicActivationTable_tsk_io) / sizeo
  41:Source\asw/tsk_io.c **** 
  42:Source\asw/tsk_io.c **** 
  43:Source\asw/tsk_io.c **** /*******************************************************************************
  44:Source\asw/tsk_io.c ****  * Task Body
  45:Source\asw/tsk_io.c ****  *******************************************************************************/
  46:Source\asw/tsk_io.c **** 
  47:Source\asw/tsk_io.c **** 
  48:Source\asw/tsk_io.c **** /*
  49:Source\asw/tsk_io.c **** * description: Task for the input and output sides
  50:Source\asw/tsk_io.c **** * events: ev_1ms
  51:Source\asw/tsk_io.c **** * mode: Cyclic
  52:Source\asw/tsk_io.c **** * name: tsk_io
  53:Source\asw/tsk_io.c **** * shortname: io
  54:Source\asw/tsk_io.c **** * signalpoolsRO: sp_common
  55:Source\asw/tsk_io.c **** * signalpoolsRW: sp_common
  56:Source\asw/tsk_io.c **** * tickEvent: ev_1ms
  57:Source\asw/tsk_io.c **** * timertickperiod: 1
  58:Source\asw/tsk_io.c **** */
  59:Source\asw/tsk_io.c **** TASK(tsk_io)
  60:Source\asw/tsk_io.c **** {
  28              		.loc 1 60 0
  29              		.cfi_startproc
  30              		@ args = 0, pretend = 0, frame = 0
  31              		@ frame_needed = 0, uses_anonymous_args = 0
  32 0000 10B5     		push	{r4, lr}
  33              		.cfi_def_cfa_offset 8
  34              		.cfi_offset 4, -8
  35              		.cfi_offset 14, -4
  61:Source\asw/tsk_io.c **** 	/* ticktime of the task */
  62:Source\asw/tsk_io.c **** 	static uint32_t ticktime = 0;
  63:Source\asw/tsk_io.c **** 
  64:Source\asw/tsk_io.c **** 	/* USER CODE START TSK_IO_TASKBOBY_PRE */
  65:Source\asw/tsk_io.c **** 
  66:Source\asw/tsk_io.c **** 	/* USER CODE END TSK_IO_TASKBODY_PRE */
  67:Source\asw/tsk_io.c ****     
  68:Source\asw/tsk_io.c ****     //Process all cyclic runnables which are due
  69:Source\asw/tsk_io.c ****     RTE_ProcessCyclicTable(RTE_cyclicActivationTable_tsk_io, RTE_cyclicActivation_tsk_io_size, tick
  36              		.loc 1 69 0
  37 0002 074C     		ldr	r4, .L4
  38 0004 2268     		ldr	r2, [r4]
  39 0006 0221     		movs	r1, #2
  40 0008 0648     		ldr	r0, .L4+4
  41 000a FFF7FEFF 		bl	RTE_ProcessCyclicTable
  42              	.LVL0:
  70:Source\asw/tsk_io.c **** 	
  71:Source\asw/tsk_io.c **** 	/* USER CODE START TSK_IO_TASKBODY_POST */
  72:Source\asw/tsk_io.c **** 
ARM GAS  C:\Users\mau_g\AppData\Local\Temp\ccZHNTN4.s 			page 3


  73:Source\asw/tsk_io.c **** 	/* USER CODE END TSK_IO_TASKBODY_POST */
  74:Source\asw/tsk_io.c **** 
  75:Source\asw/tsk_io.c **** 	ticktime += 1;
  43              		.loc 1 75 0
  44 000e 2368     		ldr	r3, [r4]
  45 0010 0133     		adds	r3, r3, #1
  46 0012 2360     		str	r3, [r4]
  76:Source\asw/tsk_io.c **** 	if (ticktime > 0xFFFFFF00) ticktime = 0;
  47              		.loc 1 76 0
  48 0014 13F5807F 		cmn	r3, #256
  49 0018 01D9     		bls	.L1
  50              		.loc 1 76 0 is_stmt 0 discriminator 1
  51 001a 0022     		movs	r2, #0
  52 001c 2260     		str	r2, [r4]
  53              	.L1:
  54 001e 10BD     		pop	{r4, pc}
  55              	.L5:
  56              		.align	2
  57              	.L4:
  58 0020 00000000 		.word	.LANCHOR0
  59 0024 00000000 		.word	.LANCHOR1
  60              		.cfi_endproc
  61              	.LFE141:
  62              		.size	Functsk_io, .-Functsk_io
  63              		.section	.text.ISR2_isr_Button,"ax",%progbits
  64              		.align	2
  65              		.global	ISR2_isr_Button
  66              		.thumb
  67              		.thumb_func
  68              		.type	ISR2_isr_Button, %function
  69              	ISR2_isr_Button:
  70              	.LFB143:
  77:Source\asw/tsk_io.c ****     
  78:Source\asw/tsk_io.c **** }
  79:Source\asw/tsk_io.c **** 
  80:Source\asw/tsk_io.c **** 
  81:Source\asw/tsk_io.c **** /*******************************************************************************
  82:Source\asw/tsk_io.c ****  * Interrupt Service Routines
  83:Source\asw/tsk_io.c ****  *******************************************************************************/
  84:Source\asw/tsk_io.c **** 
  85:Source\asw/tsk_io.c **** ISR2(isr_Button)
  86:Source\asw/tsk_io.c **** {
  71              		.loc 1 86 0 is_stmt 1
  72              		.cfi_startproc
  73              		@ args = 0, pretend = 0, frame = 8
  74              		@ frame_needed = 0, uses_anonymous_args = 0
  75 0000 30B5     		push	{r4, r5, lr}
  76              		.cfi_def_cfa_offset 12
  77              		.cfi_offset 4, -12
  78              		.cfi_offset 5, -8
  79              		.cfi_offset 14, -4
  80 0002 83B0     		sub	sp, sp, #12
  81              		.cfi_def_cfa_offset 24
  87:Source\asw/tsk_io.c ****     SC_BUTTON_data_t myButton = SC_BUTTON_INIT_DATA;
  82              		.loc 1 87 0
  83 0004 0023     		movs	r3, #0
  84 0006 8DF80430 		strb	r3, [sp, #4]
ARM GAS  C:\Users\mau_g\AppData\Local\Temp\ccZHNTN4.s 			page 4


  85 000a 8DF80530 		strb	r3, [sp, #5]
  88:Source\asw/tsk_io.c ****     SC_EVENT_data_t myEvent   = SC_EVENT_INIT_DATA;
  89:Source\asw/tsk_io.c ****     
  90:Source\asw/tsk_io.c ****     SC_BUTTON_driverIn(&myButton);
  86              		.loc 1 90 0
  87 000e 01A8     		add	r0, sp, #4
  88 0010 FFF7FEFF 		bl	SC_BUTTON_driverIn
  89              	.LVL1:
  91:Source\asw/tsk_io.c ****     
  92:Source\asw/tsk_io.c ****     if(TRUE == myButton.buttonRightPressed)
  90              		.loc 1 92 0
  91 0014 9DF80530 		ldrb	r3, [sp, #5]	@ zero_extendqisi2
  92 0018 012B     		cmp	r3, #1
  93 001a 2DD1     		bne	.L7
  94              	.LVL2:
  95              	.LBB32:
  96              	.LBB33:
  97              		.file 2 ".\\Source\\rte/sc_event.h"
   1:.\Source\rte/sc_event.h **** 
   2:.\Source\rte/sc_event.h **** 
   3:.\Source\rte/sc_event.h **** /**
   4:.\Source\rte/sc_event.h **** *  file    SC_EVENT_signal.h
   5:.\Source\rte/sc_event.h **** *
   6:.\Source\rte/sc_event.h **** *  brief   signal base class for signal sc_event
   7:.\Source\rte/sc_event.h **** *
   8:.\Source\rte/sc_event.h **** *  author  Autogenerated, Peter Fromm       <peter.fromm@h-da.de>
   9:.\Source\rte/sc_event.h **** *
  10:.\Source\rte/sc_event.h **** *
  11:.\Source\rte/sc_event.h **** */
  12:.\Source\rte/sc_event.h **** 
  13:.\Source\rte/sc_event.h **** /*
  14:.\Source\rte/sc_event.h **** * description: Signal Class which will contain the events processed.
  15:.\Source\rte/sc_event.h **** * name: sc_event
  16:.\Source\rte/sc_event.h **** * shortname: event
  17:.\Source\rte/sc_event.h **** */
  18:.\Source\rte/sc_event.h **** 
  19:.\Source\rte/sc_event.h **** #ifndef SC_EVENT_SIGNAL_H_INCLUDED
  20:.\Source\rte/sc_event.h **** #define SC_EVENT_SIGNAL_H_INCLUDED
  21:.\Source\rte/sc_event.h **** 
  22:.\Source\rte/sc_event.h **** /*================================================[ public includes  ]=============================
  23:.\Source\rte/sc_event.h **** #include "global.h"
  24:.\Source\rte/sc_event.h **** #include "project.h"
  25:.\Source\rte/sc_event.h **** #include "rte.h"
  26:.\Source\rte/sc_event.h **** #include "rte_types.h"
  27:.\Source\rte/sc_event.h **** 
  28:.\Source\rte/sc_event.h **** #include "sc_event_type.h"
  29:.\Source\rte/sc_event.h **** 
  30:.\Source\rte/sc_event.h **** 
  31:.\Source\rte/sc_event.h **** /**************************************************************************************************
  32:.\Source\rte/sc_event.h **** /* The driver API block																						*/
  33:.\Source\rte/sc_event.h **** /**************************************************************************************************
  34:.\Source\rte/sc_event.h ****                                                                                                    
  35:.\Source\rte/sc_event.h **** /**
  36:.\Source\rte/sc_event.h ****  *  Definition of function types for driver interfaces.
  37:.\Source\rte/sc_event.h ****  *  I-Port
  38:.\Source\rte/sc_event.h ****  */
  39:.\Source\rte/sc_event.h **** typedef RC_t (*SC_EVENT_driverIn_t)(SC_EVENT_data_t * const);
ARM GAS  C:\Users\mau_g\AppData\Local\Temp\ccZHNTN4.s 			page 5


  40:.\Source\rte/sc_event.h **** 
  41:.\Source\rte/sc_event.h **** /**
  42:.\Source\rte/sc_event.h ****  *  Definition of function types for driver interfaces.
  43:.\Source\rte/sc_event.h ****  *  O-Port
  44:.\Source\rte/sc_event.h ****  */
  45:.\Source\rte/sc_event.h **** typedef RC_t (*SC_EVENT_driverOut_t)( const SC_EVENT_data_t * const);
  46:.\Source\rte/sc_event.h **** 
  47:.\Source\rte/sc_event.h **** 
  48:.\Source\rte/sc_event.h **** /**************************************************************************************************
  49:.\Source\rte/sc_event.h **** /* The signal configuration API block																				*/
  50:.\Source\rte/sc_event.h **** /**************************************************************************************************
  51:.\Source\rte/sc_event.h **** 
  52:.\Source\rte/sc_event.h **** /**
  53:.\Source\rte/sc_event.h ****  * Instances of the struct SC_EVENT_cfg_t represent the signal object configuration.
  54:.\Source\rte/sc_event.h ****  */
  55:.\Source\rte/sc_event.h **** struct SC_EVENT_cfg_s
  56:.\Source\rte/sc_event.h **** {
  57:.\Source\rte/sc_event.h ****     /**
  58:.\Source\rte/sc_event.h ****      * Function pointer to the input driver
  59:.\Source\rte/sc_event.h ****      */
  60:.\Source\rte/sc_event.h ****     SC_EVENT_driverIn_t const inDriver;
  61:.\Source\rte/sc_event.h **** 
  62:.\Source\rte/sc_event.h ****     /**
  63:.\Source\rte/sc_event.h ****      * Function pointer to the output driver table
  64:.\Source\rte/sc_event.h ****      */
  65:.\Source\rte/sc_event.h ****    SC_EVENT_driverOut_t const outDriver;
  66:.\Source\rte/sc_event.h ****    
  67:.\Source\rte/sc_event.h ****     /**
  68:.\Source\rte/sc_event.h ****      * Event onUpdate
  69:.\Source\rte/sc_event.h ****      */
  70:.\Source\rte/sc_event.h ****     EventMaskType const evOnUpdate;
  71:.\Source\rte/sc_event.h ****     
  72:.\Source\rte/sc_event.h ****     
  73:.\Source\rte/sc_event.h ****     /**
  74:.\Source\rte/sc_event.h ****      * Event onError
  75:.\Source\rte/sc_event.h ****      */
  76:.\Source\rte/sc_event.h ****     EventMaskType const evOnError;
  77:.\Source\rte/sc_event.h ****     
  78:.\Source\rte/sc_event.h ****     /**
  79:.\Source\rte/sc_event.h ****      * Task Count onUpdate
  80:.\Source\rte/sc_event.h ****      */
  81:.\Source\rte/sc_event.h ****     size_t const onUpdateTaskCount;
  82:.\Source\rte/sc_event.h **** 
  83:.\Source\rte/sc_event.h ****     /**
  84:.\Source\rte/sc_event.h ****      * Task List onUpdate
  85:.\Source\rte/sc_event.h ****      */
  86:.\Source\rte/sc_event.h ****     TaskTypeArray* const onUpdateTasks;
  87:.\Source\rte/sc_event.h ****     
  88:.\Source\rte/sc_event.h ****     /**
  89:.\Source\rte/sc_event.h ****      * Task Count onError
  90:.\Source\rte/sc_event.h ****      */
  91:.\Source\rte/sc_event.h ****     size_t const onErrorTaskCount;
  92:.\Source\rte/sc_event.h **** 
  93:.\Source\rte/sc_event.h ****     /**
  94:.\Source\rte/sc_event.h ****      * Task List onError
  95:.\Source\rte/sc_event.h ****      */
  96:.\Source\rte/sc_event.h ****     TaskTypeArray* const onErrorTasks;
ARM GAS  C:\Users\mau_g\AppData\Local\Temp\ccZHNTN4.s 			page 6


  97:.\Source\rte/sc_event.h **** 	
  98:.\Source\rte/sc_event.h **** 	
  99:.\Source\rte/sc_event.h **** 	/**
 100:.\Source\rte/sc_event.h **** 	 * Ressourse is active? We need an additional boolean as a ressource value 0 is valid.
 101:.\Source\rte/sc_event.h **** 	 */
 102:.\Source\rte/sc_event.h **** 	 boolean_t const resourceActive;
 103:.\Source\rte/sc_event.h **** 	 
 104:.\Source\rte/sc_event.h **** 	/**
 105:.\Source\rte/sc_event.h **** 	 * Ressourse 
 106:.\Source\rte/sc_event.h **** 	 */
 107:.\Source\rte/sc_event.h **** 	 ResourceType const resource;
 108:.\Source\rte/sc_event.h **** 
 109:.\Source\rte/sc_event.h **** };                                                                                                 
 110:.\Source\rte/sc_event.h **** typedef const struct SC_EVENT_cfg_s SC_EVENT_cfg_t;
 111:.\Source\rte/sc_event.h ****                               
 112:.\Source\rte/sc_event.h **** /**************************************************************************************************
 113:.\Source\rte/sc_event.h **** /* The data interface block																							*/
 114:.\Source\rte/sc_event.h **** /**************************************************************************************************
 115:.\Source\rte/sc_event.h **** 
 116:.\Source\rte/sc_event.h ****                                                                                                    
 117:.\Source\rte/sc_event.h **** 							  
 118:.\Source\rte/sc_event.h **** /**
 119:.\Source\rte/sc_event.h ****  * Instances of the struct SC_EVENT_t represent the signal objects.
 120:.\Source\rte/sc_event.h ****  * A signal object contains the current application value 'value' as well as relevant meta data.
 121:.\Source\rte/sc_event.h ****  */
 122:.\Source\rte/sc_event.h **** struct SC_EVENT_s
 123:.\Source\rte/sc_event.h **** {                                                                                                  
 124:.\Source\rte/sc_event.h **** 
 125:.\Source\rte/sc_event.h **** 	/**
 126:.\Source\rte/sc_event.h **** 	 * Data buffer for the application value
 127:.\Source\rte/sc_event.h **** 	 */
 128:.\Source\rte/sc_event.h ****     SC_EVENT_data_t value;
 129:.\Source\rte/sc_event.h **** 
 130:.\Source\rte/sc_event.h ****     /**
 131:.\Source\rte/sc_event.h ****      * Current signal status
 132:.\Source\rte/sc_event.h ****      */
 133:.\Source\rte/sc_event.h ****     RTE_signalStatus_t status;
 134:.\Source\rte/sc_event.h **** 
 135:.\Source\rte/sc_event.h ****     /**
 136:.\Source\rte/sc_event.h ****      * Current age of the signal (in calling cycles)
 137:.\Source\rte/sc_event.h ****      */
 138:.\Source\rte/sc_event.h ****     uint32_t age;
 139:.\Source\rte/sc_event.h **** 
 140:.\Source\rte/sc_event.h ****     /**
 141:.\Source\rte/sc_event.h ****      * Pointer to the signal configuration
 142:.\Source\rte/sc_event.h ****      */
 143:.\Source\rte/sc_event.h **** 	const SC_EVENT_cfg_t * const    pSigCfg;
 144:.\Source\rte/sc_event.h **** 
 145:.\Source\rte/sc_event.h **** };                                                                                                 
 146:.\Source\rte/sc_event.h **** typedef struct SC_EVENT_s SC_EVENT_t;
 147:.\Source\rte/sc_event.h **** 
 148:.\Source\rte/sc_event.h **** /**************************************************************************************************
 149:.\Source\rte/sc_event.h **** /* Signal initialisation   																							*/
 150:.\Source\rte/sc_event.h **** /**************************************************************************************************
 151:.\Source\rte/sc_event.h **** 
 152:.\Source\rte/sc_event.h **** /**
 153:.\Source\rte/sc_event.h ****  * Initializes a signal instance with a passed init value.
ARM GAS  C:\Users\mau_g\AppData\Local\Temp\ccZHNTN4.s 			page 7


 154:.\Source\rte/sc_event.h ****  * Depending on the configured conversion or scaling function the raw_value will be calculated.
 155:.\Source\rte/sc_event.h ****  * Signal status will change from RTE_SIGNALSTATUS_STARTUP to RTE_SIGNALSTATUS_INITIALIZED.
 156:.\Source\rte/sc_event.h ****  *
 157:.\Source\rte/sc_event.h ****  * @param  SC_EVENT_t * const signal: Pointer to the signal object which will be initialised
 158:.\Source\rte/sc_event.h ****  * @param const sc_event_data_t * const value: Pointer to initial value of the application data
 159:.\Source\rte/sc_event.h ****  * @return RC_t: standard return code, currently only RC_SUCCESS
 160:.\Source\rte/sc_event.h ****  *
 161:.\Source\rte/sc_event.h ****  **/
 162:.\Source\rte/sc_event.h **** inline RC_t RTE_SC_EVENT_init( SC_EVENT_t * const signal, const SC_EVENT_data_t * const value )
 163:.\Source\rte/sc_event.h **** {                                                                                                  
 164:.\Source\rte/sc_event.h **** 
 165:.\Source\rte/sc_event.h ****    RC_t ret = RC_SUCCESS;
 166:.\Source\rte/sc_event.h **** 
 167:.\Source\rte/sc_event.h ****    //Set value and raw value
 168:.\Source\rte/sc_event.h ****    signal->value  = *value;
 169:.\Source\rte/sc_event.h ****    signal->age    = 0;
 170:.\Source\rte/sc_event.h ****    signal->status = RTE_SIGNALSTATUS_INITIALIZED;
 171:.\Source\rte/sc_event.h **** 
 172:.\Source\rte/sc_event.h ****    return ret;
 173:.\Source\rte/sc_event.h **** }
 174:.\Source\rte/sc_event.h **** 
 175:.\Source\rte/sc_event.h **** /**************************************************************************************************
 176:.\Source\rte/sc_event.h **** /* Status and timeout control																						*/
 177:.\Source\rte/sc_event.h **** /**************************************************************************************************
 178:.\Source\rte/sc_event.h **** 
 179:.\Source\rte/sc_event.h **** /**
 180:.\Source\rte/sc_event.h ****  *  Returns the current signal status of the passed signal instance.
 181:.\Source\rte/sc_event.h ****  *
 182:.\Source\rte/sc_event.h ****  * @param  SC_EVENT_t * const signal: Pointer to the signal object
 183:.\Source\rte/sc_event.h ****  * @return  sig_status_t: The current signal status
 184:.\Source\rte/sc_event.h ****  *
 185:.\Source\rte/sc_event.h ****  **/
 186:.\Source\rte/sc_event.h **** inline RTE_signalStatus_t RTE_SC_EVENT_getStatus( const SC_EVENT_t * const signal )
 187:.\Source\rte/sc_event.h **** {
 188:.\Source\rte/sc_event.h ****    return signal->status;
 189:.\Source\rte/sc_event.h **** }
 190:.\Source\rte/sc_event.h **** 
 191:.\Source\rte/sc_event.h **** 
 192:.\Source\rte/sc_event.h **** /**
 193:.\Source\rte/sc_event.h ****  *  Sets a new signal status of the passed signal instance by passing the new status.
 194:.\Source\rte/sc_event.h ****  *
 195:.\Source\rte/sc_event.h ****  * @param  SC_EVENT_t * const signal: Pointer to the signal object
 196:.\Source\rte/sc_event.h ****  * @param  const sig_status_t status: New signal status
 197:.\Source\rte/sc_event.h ****  * @return RC_t: standard return code, currently only RC_SUCCESS
 198:.\Source\rte/sc_event.h ****  *
 199:.\Source\rte/sc_event.h ****  */
 200:.\Source\rte/sc_event.h **** inline RC_t RTE_SC_EVENT_setStatus( SC_EVENT_t * const signal, const RTE_signalStatus_t status )
 201:.\Source\rte/sc_event.h **** {
 202:.\Source\rte/sc_event.h ****    signal->status = status;
 203:.\Source\rte/sc_event.h ****    size_t taskNum=0;
 204:.\Source\rte/sc_event.h ****    
 205:.\Source\rte/sc_event.h ****    //Fire error events in case of invalid state
 206:.\Source\rte/sc_event.h ****    if (signal->status == RTE_SIGNALSTATUS_INVALID)
 207:.\Source\rte/sc_event.h ****    {
 208:.\Source\rte/sc_event.h **** 	    //Pointer to the Taskarray, containing the tasks receiving the onUpdate events
 209:.\Source\rte/sc_event.h **** 		TaskTypeArray* pTaskArray = signal->pSigCfg->onErrorTasks;
 210:.\Source\rte/sc_event.h **** 
ARM GAS  C:\Users\mau_g\AppData\Local\Temp\ccZHNTN4.s 			page 8


 211:.\Source\rte/sc_event.h **** 		if (NULL!=signal->pSigCfg->evOnError && NULL != pTaskArray){
 212:.\Source\rte/sc_event.h **** 			for( taskNum=0 ; taskNum < signal->pSigCfg->onErrorTaskCount ;taskNum++){
 213:.\Source\rte/sc_event.h **** 				TaskType task = (*pTaskArray)[taskNum];
 214:.\Source\rte/sc_event.h **** 				SetEvent( task, signal->pSigCfg->evOnError);
 215:.\Source\rte/sc_event.h **** 			}
 216:.\Source\rte/sc_event.h **** 		}
 217:.\Source\rte/sc_event.h ****    }
 218:.\Source\rte/sc_event.h ****    
 219:.\Source\rte/sc_event.h ****    return RC_SUCCESS;
 220:.\Source\rte/sc_event.h **** }
 221:.\Source\rte/sc_event.h **** 
 222:.\Source\rte/sc_event.h **** 
 223:.\Source\rte/sc_event.h **** /**
 224:.\Source\rte/sc_event.h ****  * Returns the count of refreshing trials (refresh, set or set_raw) that failed.
 225:.\Source\rte/sc_event.h ****  * Prerquisite: The signal is refreshed cyclically
 226:.\Source\rte/sc_event.h ****  *
 227:.\Source\rte/sc_event.h ****  * @param  SC_EVENT_t * const signal: Pointer to the signal object
 228:.\Source\rte/sc_event.h ****  * @return uint32_t: Number of cycles since the signal has been updated for the last time
 229:.\Source\rte/sc_event.h ****  */
 230:.\Source\rte/sc_event.h **** inline uint32_t RTE_SC_EVENT_getAge( const SC_EVENT_t * const signal )
 231:.\Source\rte/sc_event.h **** {
 232:.\Source\rte/sc_event.h ****    return signal->age;
 233:.\Source\rte/sc_event.h **** }
 234:.\Source\rte/sc_event.h **** 
 235:.\Source\rte/sc_event.h **** /**
 236:.\Source\rte/sc_event.h ****  * Should be called by application or driver if no new value can be provided.
 237:.\Source\rte/sc_event.h ****  * @param  SC_EVENT_t * const signal: Pointer to the signal object
 238:.\Source\rte/sc_event.h ****  * @param uint32_t increment: incrementvalue, typically in [ms]
 239:.\Source\rte/sc_event.h ****  * @return void
 240:.\Source\rte/sc_event.h ****  */
 241:.\Source\rte/sc_event.h **** inline void RTE_SC_EVENT_incAge(  SC_EVENT_t * const signal , uint32_t increment)
 242:.\Source\rte/sc_event.h **** {
 243:.\Source\rte/sc_event.h **** 	   //Hack....
 244:.\Source\rte/sc_event.h **** 	   if ( 0xFFFF0000 > (signal->age + increment) )
 245:.\Source\rte/sc_event.h **** 	   {
 246:.\Source\rte/sc_event.h **** 	      signal->age += increment;
 247:.\Source\rte/sc_event.h **** 	   }
 248:.\Source\rte/sc_event.h **** }
 249:.\Source\rte/sc_event.h **** 
 250:.\Source\rte/sc_event.h **** 
 251:.\Source\rte/sc_event.h **** /**************************************************************************************************
 252:.\Source\rte/sc_event.h **** /* Application Data read/write Interface																			*/
 253:.\Source\rte/sc_event.h **** /**************************************************************************************************
 254:.\Source\rte/sc_event.h **** 
 255:.\Source\rte/sc_event.h **** /**
 256:.\Source\rte/sc_event.h ****  * Returns the current application value of the passed signal instance.
 257:.\Source\rte/sc_event.h ****  *
 258:.\Source\rte/sc_event.h ****  * @param  SC_EVENT_t * const signal: Pointer to the signal object
 259:.\Source\rte/sc_event.h ****  * @return sc_event_data_t: current value of the application data buffer
 260:.\Source\rte/sc_event.h ****  *
 261:.\Source\rte/sc_event.h ****  **/
 262:.\Source\rte/sc_event.h **** inline SC_EVENT_data_t RTE_SC_EVENT_get( const SC_EVENT_t * const signal )
 263:.\Source\rte/sc_event.h **** {               
 264:.\Source\rte/sc_event.h ****    //Todo: Critical region cannot be protected using return values																						
 265:.\Source\rte/sc_event.h ****    return signal->value;                                                                           
 266:.\Source\rte/sc_event.h **** }                                                                                                  
 267:.\Source\rte/sc_event.h ****                                                                                                    
ARM GAS  C:\Users\mau_g\AppData\Local\Temp\ccZHNTN4.s 			page 9


 268:.\Source\rte/sc_event.h **** /**
 269:.\Source\rte/sc_event.h ****  * Returns the current application value of the passed signal instance threadsafe.
 270:.\Source\rte/sc_event.h ****  *
 271:.\Source\rte/sc_event.h ****  * @param  SC_EVENT_t * const signal: Pointer to the signal object
 272:.\Source\rte/sc_event.h ****  * @param  SC_EVENT_data_t* data: Pointer to the return data Pointer to the signal object
 273:.\Source\rte/sc_event.h ****  * @return RC_SUCCESS
 274:.\Source\rte/sc_event.h ****  *
 275:.\Source\rte/sc_event.h ****  **/
 276:.\Source\rte/sc_event.h **** inline RC_t RTE_SC_EVENT_getThreadSafe( const SC_EVENT_t * const signal, SC_EVENT_data_t * const da
 277:.\Source\rte/sc_event.h **** {    
 278:.\Source\rte/sc_event.h ****    if (TRUE == signal->pSigCfg->resourceActive) GetResource(signal->pSigCfg->resource);
 279:.\Source\rte/sc_event.h ****    *data = signal->value;
 280:.\Source\rte/sc_event.h ****    if (TRUE == signal->pSigCfg->resourceActive) ReleaseResource(signal->pSigCfg->resource);        
 281:.\Source\rte/sc_event.h **** 
 282:.\Source\rte/sc_event.h ****    return RC_SUCCESS;                                                                   
 283:.\Source\rte/sc_event.h ****    
 284:.\Source\rte/sc_event.h **** }                                                                                                  
 285:.\Source\rte/sc_event.h ****                                                                                                    
 286:.\Source\rte/sc_event.h **** /**
 287:.\Source\rte/sc_event.h ****  * Sets a new application value to the passed signal instance by passing the new value.
 288:.\Source\rte/sc_event.h ****  * The corresponding driver raw value will be calculated immediately by using the default conversio
 289:.\Source\rte/sc_event.h ****  * signal specific scaling function.
 290:.\Source\rte/sc_event.h ****  * The signal age will be set to 0 and the new status will be 'RTE_SIGNALSTATUS_VALID'.
 291:.\Source\rte/sc_event.h ****  *
 292:.\Source\rte/sc_event.h ****  * @param  SC_EVENT_t * const signal: Pointer to the signal object
 293:.\Source\rte/sc_event.h ****  * @param  sc_event_data_t const value: value for the application data buffer
 294:.\Source\rte/sc_event.h ****  * @return RC_t: standard return code, currently only RC_SUCCESS
 295:.\Source\rte/sc_event.h ****  *
 296:.\Source\rte/sc_event.h ****  **/
 297:.\Source\rte/sc_event.h **** inline RC_t RTE_SC_EVENT_set(SC_EVENT_t * const signal, const SC_EVENT_data_t value  )
 298:.\Source\rte/sc_event.h **** {
 299:.\Source\rte/sc_event.h **** 
 300:.\Source\rte/sc_event.h ****    RC_t ret = RC_SUCCESS;
 301:.\Source\rte/sc_event.h ****    size_t taskNum=0;
 302:.\Source\rte/sc_event.h **** 
 303:.\Source\rte/sc_event.h **** 
 304:.\Source\rte/sc_event.h ****    if (TRUE == signal->pSigCfg->resourceActive) GetResource(signal->pSigCfg->resource);
  98              		.loc 2 304 0
  99 001c 2F4B     		ldr	r3, .L20
 100 001e 9B68     		ldr	r3, [r3, #8]
 101 0020 93F82020 		ldrb	r2, [r3, #32]	@ zero_extendqisi2
 102 0024 012A     		cmp	r2, #1
 103 0026 02D1     		bne	.L8
 104 0028 586A     		ldr	r0, [r3, #36]
 105 002a FFF7FEFF 		bl	EE_oo_GetResource
 106              	.LVL3:
 107              	.L8:
 305:.\Source\rte/sc_event.h ****    signal->value  = value;
 108              		.loc 2 305 0
 109 002e 2B4B     		ldr	r3, .L20
 110 0030 0222     		movs	r2, #2
 111 0032 1A70     		strb	r2, [r3]
 306:.\Source\rte/sc_event.h ****    signal->age    = 0;
 112              		.loc 2 306 0
 113 0034 0022     		movs	r2, #0
 114 0036 5A60     		str	r2, [r3, #4]
 307:.\Source\rte/sc_event.h ****    signal->status = RTE_SIGNALSTATUS_VALID;
ARM GAS  C:\Users\mau_g\AppData\Local\Temp\ccZHNTN4.s 			page 10


 115              		.loc 2 307 0
 116 0038 0222     		movs	r2, #2
 117 003a 5A70     		strb	r2, [r3, #1]
 308:.\Source\rte/sc_event.h ****    if (TRUE == signal->pSigCfg->resourceActive) ReleaseResource(signal->pSigCfg->resource);
 118              		.loc 2 308 0
 119 003c 9B68     		ldr	r3, [r3, #8]
 120 003e 93F82020 		ldrb	r2, [r3, #32]	@ zero_extendqisi2
 121 0042 012A     		cmp	r2, #1
 122 0044 02D1     		bne	.L9
 123 0046 586A     		ldr	r0, [r3, #36]
 124 0048 FFF7FEFF 		bl	EE_oo_ReleaseResource
 125              	.LVL4:
 126              	.L9:
 309:.\Source\rte/sc_event.h **** 
 310:.\Source\rte/sc_event.h ****    //Pointer to the Taskarray, containing the tasks receiving the onUpdate events
 311:.\Source\rte/sc_event.h ****    TaskTypeArray* pTaskArray = signal->pSigCfg->onUpdateTasks;
 127              		.loc 2 311 0
 128 004c 234B     		ldr	r3, .L20
 129 004e 9B68     		ldr	r3, [r3, #8]
 130 0050 5D69     		ldr	r5, [r3, #20]
 131              	.LVL5:
 312:.\Source\rte/sc_event.h **** 
 313:.\Source\rte/sc_event.h ****    if (NULL!=signal->pSigCfg->evOnUpdate && NULL != pTaskArray){
 132              		.loc 2 313 0
 133 0052 9B68     		ldr	r3, [r3, #8]
 134 0054 002B     		cmp	r3, #0
 135 0056 3FD0     		beq	.L6
 136 0058 3DB9     		cbnz	r5, .L17
 137 005a 3DE0     		b	.L6
 138              	.LVL6:
 139              	.L12:
 140              	.LBB34:
 314:.\Source\rte/sc_event.h ****       for( taskNum=0 ; taskNum < signal->pSigCfg->onUpdateTaskCount ;taskNum++){
 315:.\Source\rte/sc_event.h **** 		  
 316:.\Source\rte/sc_event.h ****           TaskType task = (*pTaskArray)[taskNum];
 317:.\Source\rte/sc_event.h **** 	      SetEvent( task, signal->pSigCfg->evOnUpdate);
 141              		.loc 2 317 0
 142 005c 9968     		ldr	r1, [r3, #8]
 143 005e 55F82400 		ldr	r0, [r5, r4, lsl #2]
 144 0062 FFF7FEFF 		bl	EE_oo_SetEvent
 145              	.LVL7:
 146              	.LBE34:
 314:.\Source\rte/sc_event.h ****       for( taskNum=0 ; taskNum < signal->pSigCfg->onUpdateTaskCount ;taskNum++){
 147              		.loc 2 314 0
 148 0066 0134     		adds	r4, r4, #1
 149              	.LVL8:
 150 0068 00E0     		b	.L11
 151              	.LVL9:
 152              	.L17:
 313:.\Source\rte/sc_event.h ****       for( taskNum=0 ; taskNum < signal->pSigCfg->onUpdateTaskCount ;taskNum++){
 153              		.loc 2 313 0
 154 006a 0024     		movs	r4, #0
 155              	.LVL10:
 156              	.L11:
 314:.\Source\rte/sc_event.h ****       for( taskNum=0 ; taskNum < signal->pSigCfg->onUpdateTaskCount ;taskNum++){
 157              		.loc 2 314 0
 158 006c 1B4B     		ldr	r3, .L20
ARM GAS  C:\Users\mau_g\AppData\Local\Temp\ccZHNTN4.s 			page 11


 159 006e 9B68     		ldr	r3, [r3, #8]
 160 0070 1A69     		ldr	r2, [r3, #16]
 161 0072 9442     		cmp	r4, r2
 162 0074 F2D3     		bcc	.L12
 163 0076 2FE0     		b	.L6
 164              	.LVL11:
 165              	.L7:
 166              	.LBE33:
 167              	.LBE32:
  93:Source\asw/tsk_io.c ****     {
  94:Source\asw/tsk_io.c ****         myEvent.m_ev = EV_KEYRIGHT;
  95:Source\asw/tsk_io.c ****         RTE_SC_EVENT_set(&SO_EVENT_signal, myEvent);
  96:Source\asw/tsk_io.c ****     }
  97:Source\asw/tsk_io.c ****     else if(TRUE == myButton.buttonLeftPressed)
 168              		.loc 1 97 0
 169 0078 9DF80430 		ldrb	r3, [sp, #4]	@ zero_extendqisi2
 170 007c 012B     		cmp	r3, #1
 171 007e 2BD1     		bne	.L6
 172              	.LVL12:
 173              	.LBB35:
 174              	.LBB36:
 304:.\Source\rte/sc_event.h ****    signal->value  = value;
 175              		.loc 2 304 0
 176 0080 164B     		ldr	r3, .L20
 177 0082 9B68     		ldr	r3, [r3, #8]
 178 0084 93F82020 		ldrb	r2, [r3, #32]	@ zero_extendqisi2
 179 0088 012A     		cmp	r2, #1
 180 008a 02D1     		bne	.L13
 181 008c 586A     		ldr	r0, [r3, #36]
 182 008e FFF7FEFF 		bl	EE_oo_GetResource
 183              	.LVL13:
 184              	.L13:
 305:.\Source\rte/sc_event.h ****    signal->age    = 0;
 185              		.loc 2 305 0
 186 0092 124B     		ldr	r3, .L20
 187 0094 0122     		movs	r2, #1
 188 0096 1A70     		strb	r2, [r3]
 306:.\Source\rte/sc_event.h ****    signal->status = RTE_SIGNALSTATUS_VALID;
 189              		.loc 2 306 0
 190 0098 0022     		movs	r2, #0
 191 009a 5A60     		str	r2, [r3, #4]
 307:.\Source\rte/sc_event.h ****    if (TRUE == signal->pSigCfg->resourceActive) ReleaseResource(signal->pSigCfg->resource);
 192              		.loc 2 307 0
 193 009c 0222     		movs	r2, #2
 194 009e 5A70     		strb	r2, [r3, #1]
 308:.\Source\rte/sc_event.h **** 
 195              		.loc 2 308 0
 196 00a0 9B68     		ldr	r3, [r3, #8]
 197 00a2 93F82020 		ldrb	r2, [r3, #32]	@ zero_extendqisi2
 198 00a6 012A     		cmp	r2, #1
 199 00a8 02D1     		bne	.L14
 200 00aa 586A     		ldr	r0, [r3, #36]
 201 00ac FFF7FEFF 		bl	EE_oo_ReleaseResource
 202              	.LVL14:
 203              	.L14:
 311:.\Source\rte/sc_event.h **** 
 204              		.loc 2 311 0
ARM GAS  C:\Users\mau_g\AppData\Local\Temp\ccZHNTN4.s 			page 12


 205 00b0 0A4B     		ldr	r3, .L20
 206 00b2 9B68     		ldr	r3, [r3, #8]
 207 00b4 5D69     		ldr	r5, [r3, #20]
 208              	.LVL15:
 313:.\Source\rte/sc_event.h ****       for( taskNum=0 ; taskNum < signal->pSigCfg->onUpdateTaskCount ;taskNum++){
 209              		.loc 2 313 0
 210 00b6 9B68     		ldr	r3, [r3, #8]
 211 00b8 73B1     		cbz	r3, .L6
 212 00ba 3DB9     		cbnz	r5, .L18
 213 00bc 0CE0     		b	.L6
 214              	.LVL16:
 215              	.L16:
 216              	.LBB37:
 217              		.loc 2 317 0
 218 00be 9968     		ldr	r1, [r3, #8]
 219 00c0 55F82400 		ldr	r0, [r5, r4, lsl #2]
 220 00c4 FFF7FEFF 		bl	EE_oo_SetEvent
 221              	.LVL17:
 222              	.LBE37:
 314:.\Source\rte/sc_event.h **** 		  
 223              		.loc 2 314 0
 224 00c8 0134     		adds	r4, r4, #1
 225              	.LVL18:
 226 00ca 00E0     		b	.L15
 227              	.LVL19:
 228              	.L18:
 313:.\Source\rte/sc_event.h ****       for( taskNum=0 ; taskNum < signal->pSigCfg->onUpdateTaskCount ;taskNum++){
 229              		.loc 2 313 0
 230 00cc 0024     		movs	r4, #0
 231              	.LVL20:
 232              	.L15:
 314:.\Source\rte/sc_event.h **** 		  
 233              		.loc 2 314 0
 234 00ce 034B     		ldr	r3, .L20
 235 00d0 9B68     		ldr	r3, [r3, #8]
 236 00d2 1A69     		ldr	r2, [r3, #16]
 237 00d4 9442     		cmp	r4, r2
 238 00d6 F2D3     		bcc	.L16
 239              	.LVL21:
 240              	.L6:
 241              	.LBE36:
 242              	.LBE35:
  98:Source\asw/tsk_io.c ****     {
  99:Source\asw/tsk_io.c ****         myEvent.m_ev = EV_KEYLEFT;
 100:Source\asw/tsk_io.c ****         RTE_SC_EVENT_set(&SO_EVENT_signal, myEvent);
 101:Source\asw/tsk_io.c ****     }
 102:Source\asw/tsk_io.c ****     else
 103:Source\asw/tsk_io.c ****     {
 104:Source\asw/tsk_io.c ****         //Intended To Do Nothing.
 105:Source\asw/tsk_io.c ****     }    
 106:Source\asw/tsk_io.c ****     
 107:Source\asw/tsk_io.c **** }
 243              		.loc 1 107 0
 244 00d8 03B0     		add	sp, sp, #12
 245              		.cfi_def_cfa_offset 12
 246              		@ sp needed
 247 00da 30BD     		pop	{r4, r5, pc}
ARM GAS  C:\Users\mau_g\AppData\Local\Temp\ccZHNTN4.s 			page 13


 248              	.L21:
 249              		.align	2
 250              	.L20:
 251 00dc 00000000 		.word	SO_EVENT_signal
 252              		.cfi_endproc
 253              	.LFE143:
 254              		.size	ISR2_isr_Button, .-ISR2_isr_Button
 255              		.section	.text.isr_Button,"ax",%progbits
 256              		.align	2
 257              		.global	isr_Button
 258              		.thumb
 259              		.thumb_func
 260              		.type	isr_Button, %function
 261              	isr_Button:
 262              	.LFB142:
  85:Source\asw/tsk_io.c **** {
 263              		.loc 1 85 0
 264              		.cfi_startproc
 265              		@ Stack Align: May be called with mis-aligned SP.
 266              		@ args = 0, pretend = 0, frame = 0
 267              		@ frame_needed = 0, uses_anonymous_args = 0
 268 0000 6846     		mov	r0, sp
 269              		.cfi_register 13, 0
 270 0002 20F00701 		bic	r1, r0, #7
 271 0006 8D46     		mov	sp, r1
 272 0008 19B5     		push	{r0, r3, r4, lr}
 273              		.cfi_def_cfa_offset 16
 274              		.cfi_offset 13, -16
 275              		.cfi_offset 3, -12
 276              		.cfi_offset 4, -8
 277              		.cfi_offset 14, -4
 278              	.LVL22:
 279              	.LBB62:
 280              	.LBB63:
 281              		.file 3 "Generated_Source\\PSoC5/ErikaOS_1_cortex_mx_ee_cpu.inc"
   1:Generated_Source\PSoC5/ErikaOS_1_cortex_mx_ee_cpu.inc **** /* ###*B*###
   2:Generated_Source\PSoC5/ErikaOS_1_cortex_mx_ee_cpu.inc ****  * ERIKA Enterprise - a tiny RTOS for small microcontrollers
   3:Generated_Source\PSoC5/ErikaOS_1_cortex_mx_ee_cpu.inc ****  *
   4:Generated_Source\PSoC5/ErikaOS_1_cortex_mx_ee_cpu.inc ****  * Copyright (C) 2002-2011  Evidence Srl
   5:Generated_Source\PSoC5/ErikaOS_1_cortex_mx_ee_cpu.inc ****  *
   6:Generated_Source\PSoC5/ErikaOS_1_cortex_mx_ee_cpu.inc ****  * This file is part of ERIKA Enterprise.
   7:Generated_Source\PSoC5/ErikaOS_1_cortex_mx_ee_cpu.inc ****  *
   8:Generated_Source\PSoC5/ErikaOS_1_cortex_mx_ee_cpu.inc ****  * ERIKA Enterprise is free software; you can redistribute it
   9:Generated_Source\PSoC5/ErikaOS_1_cortex_mx_ee_cpu.inc ****  * and/or modify it under the terms of the GNU General Public License
  10:Generated_Source\PSoC5/ErikaOS_1_cortex_mx_ee_cpu.inc ****  * version 2 as published by the Free Software Foundation, 
  11:Generated_Source\PSoC5/ErikaOS_1_cortex_mx_ee_cpu.inc ****  * (with a special exception described below).
  12:Generated_Source\PSoC5/ErikaOS_1_cortex_mx_ee_cpu.inc ****  *
  13:Generated_Source\PSoC5/ErikaOS_1_cortex_mx_ee_cpu.inc ****  * Linking this code statically or dynamically with other modules is
  14:Generated_Source\PSoC5/ErikaOS_1_cortex_mx_ee_cpu.inc ****  * making a combined work based on this code.  Thus, the terms and
  15:Generated_Source\PSoC5/ErikaOS_1_cortex_mx_ee_cpu.inc ****  * conditions of the GNU General Public License cover the whole
  16:Generated_Source\PSoC5/ErikaOS_1_cortex_mx_ee_cpu.inc ****  * combination.
  17:Generated_Source\PSoC5/ErikaOS_1_cortex_mx_ee_cpu.inc ****  *
  18:Generated_Source\PSoC5/ErikaOS_1_cortex_mx_ee_cpu.inc ****  * As a special exception, the copyright holders of this library give you
  19:Generated_Source\PSoC5/ErikaOS_1_cortex_mx_ee_cpu.inc ****  * permission to link this code with independent modules to produce an
  20:Generated_Source\PSoC5/ErikaOS_1_cortex_mx_ee_cpu.inc ****  * executable, regardless of the license terms of these independent
  21:Generated_Source\PSoC5/ErikaOS_1_cortex_mx_ee_cpu.inc ****  * modules, and to copy and distribute the resulting executable under
  22:Generated_Source\PSoC5/ErikaOS_1_cortex_mx_ee_cpu.inc ****  * terms of your choice, provided that you also meet, for each linked
ARM GAS  C:\Users\mau_g\AppData\Local\Temp\ccZHNTN4.s 			page 14


  23:Generated_Source\PSoC5/ErikaOS_1_cortex_mx_ee_cpu.inc ****  * independent module, the terms and conditions of the license of that
  24:Generated_Source\PSoC5/ErikaOS_1_cortex_mx_ee_cpu.inc ****  * module.  An independent module is a module which is not derived from
  25:Generated_Source\PSoC5/ErikaOS_1_cortex_mx_ee_cpu.inc ****  * or based on this library.  If you modify this code, you may extend
  26:Generated_Source\PSoC5/ErikaOS_1_cortex_mx_ee_cpu.inc ****  * this exception to your version of the code, but you are not
  27:Generated_Source\PSoC5/ErikaOS_1_cortex_mx_ee_cpu.inc ****  * obligated to do so.  If you do not wish to do so, delete this
  28:Generated_Source\PSoC5/ErikaOS_1_cortex_mx_ee_cpu.inc ****  * exception statement from your version.
  29:Generated_Source\PSoC5/ErikaOS_1_cortex_mx_ee_cpu.inc ****  *
  30:Generated_Source\PSoC5/ErikaOS_1_cortex_mx_ee_cpu.inc ****  * ERIKA Enterprise is distributed in the hope that it will be
  31:Generated_Source\PSoC5/ErikaOS_1_cortex_mx_ee_cpu.inc ****  * useful, but WITHOUT ANY WARRANTY; without even the implied warranty
  32:Generated_Source\PSoC5/ErikaOS_1_cortex_mx_ee_cpu.inc ****  * of MERCHANTABILITY or FITNESS FOR A PARTICULAR PURPOSE.  See the
  33:Generated_Source\PSoC5/ErikaOS_1_cortex_mx_ee_cpu.inc ****  * GNU General Public License version 2 for more details.
  34:Generated_Source\PSoC5/ErikaOS_1_cortex_mx_ee_cpu.inc ****  *
  35:Generated_Source\PSoC5/ErikaOS_1_cortex_mx_ee_cpu.inc ****  * You should have received a copy of the GNU General Public License
  36:Generated_Source\PSoC5/ErikaOS_1_cortex_mx_ee_cpu.inc ****  * version 2 along with ERIKA Enterprise; if not, write to the
  37:Generated_Source\PSoC5/ErikaOS_1_cortex_mx_ee_cpu.inc ****  * Free Software Foundation, Inc., 51 Franklin Street, Fifth Floor,
  38:Generated_Source\PSoC5/ErikaOS_1_cortex_mx_ee_cpu.inc ****  * Boston, MA 02110-1301 USA.
  39:Generated_Source\PSoC5/ErikaOS_1_cortex_mx_ee_cpu.inc ****  * ###*E*### */
  40:Generated_Source\PSoC5/ErikaOS_1_cortex_mx_ee_cpu.inc **** 
  41:Generated_Source\PSoC5/ErikaOS_1_cortex_mx_ee_cpu.inc **** /** 
  42:Generated_Source\PSoC5/ErikaOS_1_cortex_mx_ee_cpu.inc **** 	@file ee_cpu.h
  43:Generated_Source\PSoC5/ErikaOS_1_cortex_mx_ee_cpu.inc **** 	@brief CPU-dependent part of HAL. Derived from pkg/cpu/pic30/inc/ee_cpu.h
  44:Generated_Source\PSoC5/ErikaOS_1_cortex_mx_ee_cpu.inc **** 	@author Gianluca Franchino
  45:Generated_Source\PSoC5/ErikaOS_1_cortex_mx_ee_cpu.inc **** 	@author Giuseppe Serano
  46:Generated_Source\PSoC5/ErikaOS_1_cortex_mx_ee_cpu.inc **** 	@date 2011
  47:Generated_Source\PSoC5/ErikaOS_1_cortex_mx_ee_cpu.inc **** */ 
  48:Generated_Source\PSoC5/ErikaOS_1_cortex_mx_ee_cpu.inc ****     
  49:Generated_Source\PSoC5/ErikaOS_1_cortex_mx_ee_cpu.inc **** /*
  50:Generated_Source\PSoC5/ErikaOS_1_cortex_mx_ee_cpu.inc ****  * PSoC Port and API Generation
  51:Generated_Source\PSoC5/ErikaOS_1_cortex_mx_ee_cpu.inc ****  * Carlos Fernando Meier Martinez
  52:Generated_Source\PSoC5/ErikaOS_1_cortex_mx_ee_cpu.inc ****  * Hochschule Darmstadt, Germany. 2017.
  53:Generated_Source\PSoC5/ErikaOS_1_cortex_mx_ee_cpu.inc ****  */
  54:Generated_Source\PSoC5/ErikaOS_1_cortex_mx_ee_cpu.inc **** 
  55:Generated_Source\PSoC5/ErikaOS_1_cortex_mx_ee_cpu.inc **** #ifndef __INCLUDE_CORTEX_MX_EE_CPU_H__
  56:Generated_Source\PSoC5/ErikaOS_1_cortex_mx_ee_cpu.inc **** #define __INCLUDE_CORTEX_MX_EE_CPU_H__
  57:Generated_Source\PSoC5/ErikaOS_1_cortex_mx_ee_cpu.inc **** 
  58:Generated_Source\PSoC5/ErikaOS_1_cortex_mx_ee_cpu.inc **** #include "ErikaOS_1_eecfg.inc"
  59:Generated_Source\PSoC5/ErikaOS_1_cortex_mx_ee_cpu.inc **** 
  60:Generated_Source\PSoC5/ErikaOS_1_cortex_mx_ee_cpu.inc **** 
  61:Generated_Source\PSoC5/ErikaOS_1_cortex_mx_ee_cpu.inc **** #ifdef __GNU__
  62:Generated_Source\PSoC5/ErikaOS_1_cortex_mx_ee_cpu.inc **** #include "ErikaOS_1_common_ee_compiler_gcc.inc"
  63:Generated_Source\PSoC5/ErikaOS_1_cortex_mx_ee_cpu.inc **** #endif
  64:Generated_Source\PSoC5/ErikaOS_1_cortex_mx_ee_cpu.inc **** 
  65:Generated_Source\PSoC5/ErikaOS_1_cortex_mx_ee_cpu.inc **** /* Initial stack offset (in words): Used in multistack. */
  66:Generated_Source\PSoC5/ErikaOS_1_cortex_mx_ee_cpu.inc **** #ifndef CORTEX_MX_INIT_TOS_OFFSET
  67:Generated_Source\PSoC5/ErikaOS_1_cortex_mx_ee_cpu.inc **** #define CORTEX_MX_INIT_TOS_OFFSET 10
  68:Generated_Source\PSoC5/ErikaOS_1_cortex_mx_ee_cpu.inc **** #endif
  69:Generated_Source\PSoC5/ErikaOS_1_cortex_mx_ee_cpu.inc **** 
  70:Generated_Source\PSoC5/ErikaOS_1_cortex_mx_ee_cpu.inc **** /*************************************************************************
  71:Generated_Source\PSoC5/ErikaOS_1_cortex_mx_ee_cpu.inc ****  HAL Types and structures
  72:Generated_Source\PSoC5/ErikaOS_1_cortex_mx_ee_cpu.inc ****  *************************************************************************/
  73:Generated_Source\PSoC5/ErikaOS_1_cortex_mx_ee_cpu.inc **** 
  74:Generated_Source\PSoC5/ErikaOS_1_cortex_mx_ee_cpu.inc **** /* Primitive data types */
  75:Generated_Source\PSoC5/ErikaOS_1_cortex_mx_ee_cpu.inc **** #include "ErikaOS_1_common_ee_types.inc"
  76:Generated_Source\PSoC5/ErikaOS_1_cortex_mx_ee_cpu.inc **** 
  77:Generated_Source\PSoC5/ErikaOS_1_cortex_mx_ee_cpu.inc **** typedef EE_UINT32 EE_UREG;
  78:Generated_Source\PSoC5/ErikaOS_1_cortex_mx_ee_cpu.inc **** typedef EE_INT32  EE_SREG;
  79:Generated_Source\PSoC5/ErikaOS_1_cortex_mx_ee_cpu.inc **** typedef EE_UINT32 EE_FREG;
ARM GAS  C:\Users\mau_g\AppData\Local\Temp\ccZHNTN4.s 			page 15


  80:Generated_Source\PSoC5/ErikaOS_1_cortex_mx_ee_cpu.inc **** #define EE_UREG_SIZE 4
  81:Generated_Source\PSoC5/ErikaOS_1_cortex_mx_ee_cpu.inc **** 
  82:Generated_Source\PSoC5/ErikaOS_1_cortex_mx_ee_cpu.inc **** /* boolean type */
  83:Generated_Source\PSoC5/ErikaOS_1_cortex_mx_ee_cpu.inc **** #ifndef EE_TYPEBOOL
  84:Generated_Source\PSoC5/ErikaOS_1_cortex_mx_ee_cpu.inc **** typedef EE_UREG EE_TYPEBOOL;
  85:Generated_Source\PSoC5/ErikaOS_1_cortex_mx_ee_cpu.inc **** #endif
  86:Generated_Source\PSoC5/ErikaOS_1_cortex_mx_ee_cpu.inc **** 
  87:Generated_Source\PSoC5/ErikaOS_1_cortex_mx_ee_cpu.inc **** /* boolean true define */
  88:Generated_Source\PSoC5/ErikaOS_1_cortex_mx_ee_cpu.inc **** #ifndef EE_TRUE
  89:Generated_Source\PSoC5/ErikaOS_1_cortex_mx_ee_cpu.inc **** #define EE_TRUE ((EE_TYPEBOOL)1U)
  90:Generated_Source\PSoC5/ErikaOS_1_cortex_mx_ee_cpu.inc **** #endif
  91:Generated_Source\PSoC5/ErikaOS_1_cortex_mx_ee_cpu.inc **** 
  92:Generated_Source\PSoC5/ErikaOS_1_cortex_mx_ee_cpu.inc **** /* boolean false define */
  93:Generated_Source\PSoC5/ErikaOS_1_cortex_mx_ee_cpu.inc **** #ifndef EE_FALSE
  94:Generated_Source\PSoC5/ErikaOS_1_cortex_mx_ee_cpu.inc **** #define EE_FALSE ((EE_TYPEBOOL)0U)
  95:Generated_Source\PSoC5/ErikaOS_1_cortex_mx_ee_cpu.inc **** #endif
  96:Generated_Source\PSoC5/ErikaOS_1_cortex_mx_ee_cpu.inc **** 
  97:Generated_Source\PSoC5/ErikaOS_1_cortex_mx_ee_cpu.inc **** #define	EE_HWREG_PTR		volatile EE_UREG *
  98:Generated_Source\PSoC5/ErikaOS_1_cortex_mx_ee_cpu.inc **** #define	EE_HWREG_ADDR(x)	((EE_HWREG_PTR)(x))
  99:Generated_Source\PSoC5/ErikaOS_1_cortex_mx_ee_cpu.inc **** #define	EE_HWREG(x)		(*EE_HWREG_ADDR(x))
 100:Generated_Source\PSoC5/ErikaOS_1_cortex_mx_ee_cpu.inc **** 
 101:Generated_Source\PSoC5/ErikaOS_1_cortex_mx_ee_cpu.inc **** #ifdef __GNU__
 102:Generated_Source\PSoC5/ErikaOS_1_cortex_mx_ee_cpu.inc **** 
 103:Generated_Source\PSoC5/ErikaOS_1_cortex_mx_ee_cpu.inc **** /* Get current SP */
 104:Generated_Source\PSoC5/ErikaOS_1_cortex_mx_ee_cpu.inc **** __INLINE__ EE_UINT32  __current_sp(void)
 105:Generated_Source\PSoC5/ErikaOS_1_cortex_mx_ee_cpu.inc **** {
 106:Generated_Source\PSoC5/ErikaOS_1_cortex_mx_ee_cpu.inc **** EE_UINT32 temp;
 107:Generated_Source\PSoC5/ErikaOS_1_cortex_mx_ee_cpu.inc **** __ASM ("mov %0, sp" : "=r" (temp) : );
 108:Generated_Source\PSoC5/ErikaOS_1_cortex_mx_ee_cpu.inc **** return temp;
 109:Generated_Source\PSoC5/ErikaOS_1_cortex_mx_ee_cpu.inc **** }
 110:Generated_Source\PSoC5/ErikaOS_1_cortex_mx_ee_cpu.inc **** 
 111:Generated_Source\PSoC5/ErikaOS_1_cortex_mx_ee_cpu.inc **** /* Set a breakpoint */
 112:Generated_Source\PSoC5/ErikaOS_1_cortex_mx_ee_cpu.inc **** #define __breakpoint(value)	__ASM ("bkpt "#value)
 113:Generated_Source\PSoC5/ErikaOS_1_cortex_mx_ee_cpu.inc **** 
 114:Generated_Source\PSoC5/ErikaOS_1_cortex_mx_ee_cpu.inc **** #endif
 115:Generated_Source\PSoC5/ErikaOS_1_cortex_mx_ee_cpu.inc **** 
 116:Generated_Source\PSoC5/ErikaOS_1_cortex_mx_ee_cpu.inc **** /* ISR Priority representation type */
 117:Generated_Source\PSoC5/ErikaOS_1_cortex_mx_ee_cpu.inc **** typedef EE_UREG EE_TYPEISR2PRIO;
 118:Generated_Source\PSoC5/ErikaOS_1_cortex_mx_ee_cpu.inc **** 
 119:Generated_Source\PSoC5/ErikaOS_1_cortex_mx_ee_cpu.inc **** /* Thread IDs */
 120:Generated_Source\PSoC5/ErikaOS_1_cortex_mx_ee_cpu.inc **** typedef EE_INT32 EE_TID;
 121:Generated_Source\PSoC5/ErikaOS_1_cortex_mx_ee_cpu.inc **** 
 122:Generated_Source\PSoC5/ErikaOS_1_cortex_mx_ee_cpu.inc **** /* Thread IDs - unsigned version*/
 123:Generated_Source\PSoC5/ErikaOS_1_cortex_mx_ee_cpu.inc **** typedef EE_UINT32 EE_UTID;
 124:Generated_Source\PSoC5/ErikaOS_1_cortex_mx_ee_cpu.inc **** 
 125:Generated_Source\PSoC5/ErikaOS_1_cortex_mx_ee_cpu.inc **** /* Used by the common layer to decide whether to start a new thread */
 126:Generated_Source\PSoC5/ErikaOS_1_cortex_mx_ee_cpu.inc **** #define TID_IS_STACKED_MARK 0x80000000
 127:Generated_Source\PSoC5/ErikaOS_1_cortex_mx_ee_cpu.inc **** 
 128:Generated_Source\PSoC5/ErikaOS_1_cortex_mx_ee_cpu.inc **** /* EE_TYPEIRQ is currently unused */
 129:Generated_Source\PSoC5/ErikaOS_1_cortex_mx_ee_cpu.inc **** 
 130:Generated_Source\PSoC5/ErikaOS_1_cortex_mx_ee_cpu.inc **** /* XXX: define EE_TIME? */
 131:Generated_Source\PSoC5/ErikaOS_1_cortex_mx_ee_cpu.inc **** 
 132:Generated_Source\PSoC5/ErikaOS_1_cortex_mx_ee_cpu.inc **** /* Use the "standard" implementation */
 133:Generated_Source\PSoC5/ErikaOS_1_cortex_mx_ee_cpu.inc **** #include "ErikaOS_1_common_ee_hal_structs.inc"
 134:Generated_Source\PSoC5/ErikaOS_1_cortex_mx_ee_cpu.inc **** 
 135:Generated_Source\PSoC5/ErikaOS_1_cortex_mx_ee_cpu.inc **** /******************************************************************************
 136:Generated_Source\PSoC5/ErikaOS_1_cortex_mx_ee_cpu.inc ****  Application dependent data types
ARM GAS  C:\Users\mau_g\AppData\Local\Temp\ccZHNTN4.s 			page 16


 137:Generated_Source\PSoC5/ErikaOS_1_cortex_mx_ee_cpu.inc ****  ******************************************************************************/
 138:Generated_Source\PSoC5/ErikaOS_1_cortex_mx_ee_cpu.inc **** 
 139:Generated_Source\PSoC5/ErikaOS_1_cortex_mx_ee_cpu.inc **** #ifdef	__HAS_TYPES_H__
 140:Generated_Source\PSoC5/ErikaOS_1_cortex_mx_ee_cpu.inc **** #include	"types.h"
 141:Generated_Source\PSoC5/ErikaOS_1_cortex_mx_ee_cpu.inc **** #endif
 142:Generated_Source\PSoC5/ErikaOS_1_cortex_mx_ee_cpu.inc **** 
 143:Generated_Source\PSoC5/ErikaOS_1_cortex_mx_ee_cpu.inc **** /******************************************************************************
 144:Generated_Source\PSoC5/ErikaOS_1_cortex_mx_ee_cpu.inc ****  CPU Peripherals
 145:Generated_Source\PSoC5/ErikaOS_1_cortex_mx_ee_cpu.inc ****  ******************************************************************************/
 146:Generated_Source\PSoC5/ErikaOS_1_cortex_mx_ee_cpu.inc **** 
 147:Generated_Source\PSoC5/ErikaOS_1_cortex_mx_ee_cpu.inc **** #ifdef __CORTEX_MX__
 148:Generated_Source\PSoC5/ErikaOS_1_cortex_mx_ee_cpu.inc **** #include "ErikaOS_1_cortex_mx_ee_nvic.inc"
 149:Generated_Source\PSoC5/ErikaOS_1_cortex_mx_ee_cpu.inc **** #include "ErikaOS_1_cortex_mx_ee_systick.inc"
 150:Generated_Source\PSoC5/ErikaOS_1_cortex_mx_ee_cpu.inc **** #endif
 151:Generated_Source\PSoC5/ErikaOS_1_cortex_mx_ee_cpu.inc **** 
 152:Generated_Source\PSoC5/ErikaOS_1_cortex_mx_ee_cpu.inc **** /******************************************************************************
 153:Generated_Source\PSoC5/ErikaOS_1_cortex_mx_ee_cpu.inc ****  HAL Variables
 154:Generated_Source\PSoC5/ErikaOS_1_cortex_mx_ee_cpu.inc ****  ******************************************************************************/
 155:Generated_Source\PSoC5/ErikaOS_1_cortex_mx_ee_cpu.inc **** 
 156:Generated_Source\PSoC5/ErikaOS_1_cortex_mx_ee_cpu.inc **** #ifdef __MULTI__
 157:Generated_Source\PSoC5/ErikaOS_1_cortex_mx_ee_cpu.inc **** 
 158:Generated_Source\PSoC5/ErikaOS_1_cortex_mx_ee_cpu.inc **** /* Top-of-stack of each private stack */
 159:Generated_Source\PSoC5/ErikaOS_1_cortex_mx_ee_cpu.inc **** extern struct EE_TOS EE_cortex_mx_system_tos[];
 160:Generated_Source\PSoC5/ErikaOS_1_cortex_mx_ee_cpu.inc **** //#define	EE_std_system_tos EE_cortex_mx_system_tos
 161:Generated_Source\PSoC5/ErikaOS_1_cortex_mx_ee_cpu.inc **** 
 162:Generated_Source\PSoC5/ErikaOS_1_cortex_mx_ee_cpu.inc **** /* Index of the current stack */
 163:Generated_Source\PSoC5/ErikaOS_1_cortex_mx_ee_cpu.inc **** extern EE_UREG EE_cortex_mx_active_tos;
 164:Generated_Source\PSoC5/ErikaOS_1_cortex_mx_ee_cpu.inc **** #define	EE_hal_active_tos EE_cortex_mx_active_tos
 165:Generated_Source\PSoC5/ErikaOS_1_cortex_mx_ee_cpu.inc **** 
 166:Generated_Source\PSoC5/ErikaOS_1_cortex_mx_ee_cpu.inc **** /*extern	EE_UREG EE_pic30_thread_tos[];
 167:Generated_Source\PSoC5/ErikaOS_1_cortex_mx_ee_cpu.inc **** #define	EE_std_thread_tos EE_pic30_thread_tos */
 168:Generated_Source\PSoC5/ErikaOS_1_cortex_mx_ee_cpu.inc **** #endif /* __MULTI__ */
 169:Generated_Source\PSoC5/ErikaOS_1_cortex_mx_ee_cpu.inc **** 
 170:Generated_Source\PSoC5/ErikaOS_1_cortex_mx_ee_cpu.inc **** /*********************************************************************
 171:Generated_Source\PSoC5/ErikaOS_1_cortex_mx_ee_cpu.inc ****  Cortex M0 interrupt disabling/enabling
 172:Generated_Source\PSoC5/ErikaOS_1_cortex_mx_ee_cpu.inc ****  *********************************************************************/
 173:Generated_Source\PSoC5/ErikaOS_1_cortex_mx_ee_cpu.inc **** 
 174:Generated_Source\PSoC5/ErikaOS_1_cortex_mx_ee_cpu.inc **** /* Used to check the value returned by EE_cortex_mx_disableIRQ */
 175:Generated_Source\PSoC5/ErikaOS_1_cortex_mx_ee_cpu.inc **** #define EE_cortex_mx_are_IRQs_enabled(ie) ((ie) ^ 1)
 176:Generated_Source\PSoC5/ErikaOS_1_cortex_mx_ee_cpu.inc **** 
 177:Generated_Source\PSoC5/ErikaOS_1_cortex_mx_ee_cpu.inc **** /**
 178:Generated_Source\PSoC5/ErikaOS_1_cortex_mx_ee_cpu.inc ****  * Enable interrupts
 179:Generated_Source\PSoC5/ErikaOS_1_cortex_mx_ee_cpu.inc ****  */
 180:Generated_Source\PSoC5/ErikaOS_1_cortex_mx_ee_cpu.inc **** __INLINE__ void  EE_cortex_mx_enableIRQ(void)
 181:Generated_Source\PSoC5/ErikaOS_1_cortex_mx_ee_cpu.inc **** {
 182:Generated_Source\PSoC5/ErikaOS_1_cortex_mx_ee_cpu.inc **** #ifdef __IAR__
 183:Generated_Source\PSoC5/ErikaOS_1_cortex_mx_ee_cpu.inc **** 	__ASM ("cpsie i");
 184:Generated_Source\PSoC5/ErikaOS_1_cortex_mx_ee_cpu.inc **** #else	/* __IAR__ */
 185:Generated_Source\PSoC5/ErikaOS_1_cortex_mx_ee_cpu.inc **** #ifdef __CCS__
 186:Generated_Source\PSoC5/ErikaOS_1_cortex_mx_ee_cpu.inc **** 	__ASM ("    cpsie    i\n");
 187:Generated_Source\PSoC5/ErikaOS_1_cortex_mx_ee_cpu.inc **** #else	/* __CCS__ */
 188:Generated_Source\PSoC5/ErikaOS_1_cortex_mx_ee_cpu.inc **** #ifdef __KEIL__
 189:Generated_Source\PSoC5/ErikaOS_1_cortex_mx_ee_cpu.inc **** 	__enable_irq();
 190:Generated_Source\PSoC5/ErikaOS_1_cortex_mx_ee_cpu.inc **** #else	/* __KEIL__ */
 191:Generated_Source\PSoC5/ErikaOS_1_cortex_mx_ee_cpu.inc **** 	__ASM volatile("cpsie i");
 192:Generated_Source\PSoC5/ErikaOS_1_cortex_mx_ee_cpu.inc **** #endif	/* !__KEIL__ */
 193:Generated_Source\PSoC5/ErikaOS_1_cortex_mx_ee_cpu.inc **** #endif	/* !__CCS__ */
ARM GAS  C:\Users\mau_g\AppData\Local\Temp\ccZHNTN4.s 			page 17


 194:Generated_Source\PSoC5/ErikaOS_1_cortex_mx_ee_cpu.inc **** #endif	/* !__IAR__ */
 195:Generated_Source\PSoC5/ErikaOS_1_cortex_mx_ee_cpu.inc **** }
 196:Generated_Source\PSoC5/ErikaOS_1_cortex_mx_ee_cpu.inc **** 
 197:Generated_Source\PSoC5/ErikaOS_1_cortex_mx_ee_cpu.inc **** /**
 198:Generated_Source\PSoC5/ErikaOS_1_cortex_mx_ee_cpu.inc ****  * Disable interrupts
 199:Generated_Source\PSoC5/ErikaOS_1_cortex_mx_ee_cpu.inc ****  */
 200:Generated_Source\PSoC5/ErikaOS_1_cortex_mx_ee_cpu.inc **** __INLINE__ void  EE_cortex_mx_disableIRQ(void)
 201:Generated_Source\PSoC5/ErikaOS_1_cortex_mx_ee_cpu.inc **** {
 202:Generated_Source\PSoC5/ErikaOS_1_cortex_mx_ee_cpu.inc **** #ifdef __IAR__
 203:Generated_Source\PSoC5/ErikaOS_1_cortex_mx_ee_cpu.inc **** 	__ASM ("cpsid i");
 204:Generated_Source\PSoC5/ErikaOS_1_cortex_mx_ee_cpu.inc **** #else	/* __IAR__ */
 205:Generated_Source\PSoC5/ErikaOS_1_cortex_mx_ee_cpu.inc **** #ifdef __CCS__
 206:Generated_Source\PSoC5/ErikaOS_1_cortex_mx_ee_cpu.inc **** 	__ASM ("    cpsid    i\n");
 207:Generated_Source\PSoC5/ErikaOS_1_cortex_mx_ee_cpu.inc **** #else	/* __CCS__ */
 208:Generated_Source\PSoC5/ErikaOS_1_cortex_mx_ee_cpu.inc **** #ifdef __KEIL__
 209:Generated_Source\PSoC5/ErikaOS_1_cortex_mx_ee_cpu.inc **** 	__disable_irq();
 210:Generated_Source\PSoC5/ErikaOS_1_cortex_mx_ee_cpu.inc **** #else	/* __KEIL__ */
 211:Generated_Source\PSoC5/ErikaOS_1_cortex_mx_ee_cpu.inc **** 	__ASM volatile("cpsid i");
 282              		.loc 3 211 0
 283              		.syntax unified
 284              	@ 211 "Generated_Source\PSoC5/ErikaOS_1_cortex_mx_ee_cpu.inc" 1
 285 000a 72B6     		cpsid i
 286              	@ 0 "" 2
 287              		.thumb
 288              		.syntax unified
 289              	.LBE63:
 290              	.LBE62:
 291              	.LBB64:
 292              	.LBB65:
 212:Generated_Source\PSoC5/ErikaOS_1_cortex_mx_ee_cpu.inc **** #endif	/* !__KEIL__ */
 213:Generated_Source\PSoC5/ErikaOS_1_cortex_mx_ee_cpu.inc **** #endif	/* !__CCS__ */
 214:Generated_Source\PSoC5/ErikaOS_1_cortex_mx_ee_cpu.inc **** #endif	/* !__IAR__ */
 215:Generated_Source\PSoC5/ErikaOS_1_cortex_mx_ee_cpu.inc **** }
 216:Generated_Source\PSoC5/ErikaOS_1_cortex_mx_ee_cpu.inc **** 
 217:Generated_Source\PSoC5/ErikaOS_1_cortex_mx_ee_cpu.inc **** /**
 218:Generated_Source\PSoC5/ErikaOS_1_cortex_mx_ee_cpu.inc ****  * Resume interrupts
 219:Generated_Source\PSoC5/ErikaOS_1_cortex_mx_ee_cpu.inc ****  */
 220:Generated_Source\PSoC5/ErikaOS_1_cortex_mx_ee_cpu.inc **** __INLINE__ void  EE_cortex_mx_resumeIRQ(EE_FREG f)
 221:Generated_Source\PSoC5/ErikaOS_1_cortex_mx_ee_cpu.inc **** {
 222:Generated_Source\PSoC5/ErikaOS_1_cortex_mx_ee_cpu.inc **** #ifdef __IAR__
 223:Generated_Source\PSoC5/ErikaOS_1_cortex_mx_ee_cpu.inc **** 	__set_PRIMASK(f);
 224:Generated_Source\PSoC5/ErikaOS_1_cortex_mx_ee_cpu.inc **** #else	/* __IAR__ */
 225:Generated_Source\PSoC5/ErikaOS_1_cortex_mx_ee_cpu.inc **** #ifdef __CCS__
 226:Generated_Source\PSoC5/ErikaOS_1_cortex_mx_ee_cpu.inc **** 	__ASM ("    msr    primask, r0\n");
 227:Generated_Source\PSoC5/ErikaOS_1_cortex_mx_ee_cpu.inc **** #else	/* __CCS__ */
 228:Generated_Source\PSoC5/ErikaOS_1_cortex_mx_ee_cpu.inc **** #ifdef __KEIL__
 229:Generated_Source\PSoC5/ErikaOS_1_cortex_mx_ee_cpu.inc **** 	register EE_FREG PRIMASK __ASM("primask");
 230:Generated_Source\PSoC5/ErikaOS_1_cortex_mx_ee_cpu.inc **** 	PRIMASK = f;
 231:Generated_Source\PSoC5/ErikaOS_1_cortex_mx_ee_cpu.inc **** #else	/* __KEIL__ */
 232:Generated_Source\PSoC5/ErikaOS_1_cortex_mx_ee_cpu.inc **** 	__ASM volatile("msr primask, %0" :: "r" (f));
 233:Generated_Source\PSoC5/ErikaOS_1_cortex_mx_ee_cpu.inc **** #endif	/* !__KEIL__ */
 234:Generated_Source\PSoC5/ErikaOS_1_cortex_mx_ee_cpu.inc **** #endif	/* !__CCS__ */
 235:Generated_Source\PSoC5/ErikaOS_1_cortex_mx_ee_cpu.inc **** #endif	/* !__IAR__ */
 236:Generated_Source\PSoC5/ErikaOS_1_cortex_mx_ee_cpu.inc **** }
 237:Generated_Source\PSoC5/ErikaOS_1_cortex_mx_ee_cpu.inc **** 
 238:Generated_Source\PSoC5/ErikaOS_1_cortex_mx_ee_cpu.inc **** /**
 239:Generated_Source\PSoC5/ErikaOS_1_cortex_mx_ee_cpu.inc ****  * Suspend interrupts
ARM GAS  C:\Users\mau_g\AppData\Local\Temp\ccZHNTN4.s 			page 18


 240:Generated_Source\PSoC5/ErikaOS_1_cortex_mx_ee_cpu.inc ****  */
 241:Generated_Source\PSoC5/ErikaOS_1_cortex_mx_ee_cpu.inc **** __INLINE__ EE_FREG  EE_cortex_mx_suspendIRQ(void)
 242:Generated_Source\PSoC5/ErikaOS_1_cortex_mx_ee_cpu.inc **** {
 243:Generated_Source\PSoC5/ErikaOS_1_cortex_mx_ee_cpu.inc **** #ifndef __CCS__
 244:Generated_Source\PSoC5/ErikaOS_1_cortex_mx_ee_cpu.inc **** 	EE_FREG istat;
 245:Generated_Source\PSoC5/ErikaOS_1_cortex_mx_ee_cpu.inc **** #endif
 246:Generated_Source\PSoC5/ErikaOS_1_cortex_mx_ee_cpu.inc **** #ifdef __IAR__
 247:Generated_Source\PSoC5/ErikaOS_1_cortex_mx_ee_cpu.inc **** 	 istat = __get_PRIMASK();
 248:Generated_Source\PSoC5/ErikaOS_1_cortex_mx_ee_cpu.inc **** 	__ASM ("cpsid i");
 249:Generated_Source\PSoC5/ErikaOS_1_cortex_mx_ee_cpu.inc **** #else	/* __IAR__ */
 250:Generated_Source\PSoC5/ErikaOS_1_cortex_mx_ee_cpu.inc **** #ifdef __CCS__
 251:Generated_Source\PSoC5/ErikaOS_1_cortex_mx_ee_cpu.inc **** 	__ASM ("    mrs     r0, primask\n"
 252:Generated_Source\PSoC5/ErikaOS_1_cortex_mx_ee_cpu.inc **** 	       "    cpsid   i\n"
 253:Generated_Source\PSoC5/ErikaOS_1_cortex_mx_ee_cpu.inc **** 	       "    bx      lr\n");
 254:Generated_Source\PSoC5/ErikaOS_1_cortex_mx_ee_cpu.inc **** #else	/* __CCS__ */
 255:Generated_Source\PSoC5/ErikaOS_1_cortex_mx_ee_cpu.inc **** #ifdef __KEIL__
 256:Generated_Source\PSoC5/ErikaOS_1_cortex_mx_ee_cpu.inc **** 	register EE_FREG PRIMASK __ASM("primask");
 257:Generated_Source\PSoC5/ErikaOS_1_cortex_mx_ee_cpu.inc **** 	istat = PRIMASK;
 258:Generated_Source\PSoC5/ErikaOS_1_cortex_mx_ee_cpu.inc **** 	__disable_irq();
 259:Generated_Source\PSoC5/ErikaOS_1_cortex_mx_ee_cpu.inc **** #else	/* __KEIL__ */
 260:Generated_Source\PSoC5/ErikaOS_1_cortex_mx_ee_cpu.inc **** 	__ASM volatile ("mrs %0, primask" : "=r" (istat) );
 261:Generated_Source\PSoC5/ErikaOS_1_cortex_mx_ee_cpu.inc **** 	__ASM volatile ("cpsid i");
 262:Generated_Source\PSoC5/ErikaOS_1_cortex_mx_ee_cpu.inc **** #endif	/* !__KEIL__ */
 263:Generated_Source\PSoC5/ErikaOS_1_cortex_mx_ee_cpu.inc **** #endif	/* !__CCS__ */
 264:Generated_Source\PSoC5/ErikaOS_1_cortex_mx_ee_cpu.inc **** #endif	/* !__IAR__ */
 265:Generated_Source\PSoC5/ErikaOS_1_cortex_mx_ee_cpu.inc **** #ifdef __CCS__
 266:Generated_Source\PSoC5/ErikaOS_1_cortex_mx_ee_cpu.inc **** 	return 0;
 267:Generated_Source\PSoC5/ErikaOS_1_cortex_mx_ee_cpu.inc **** #else
 268:Generated_Source\PSoC5/ErikaOS_1_cortex_mx_ee_cpu.inc **** 	return istat;
 269:Generated_Source\PSoC5/ErikaOS_1_cortex_mx_ee_cpu.inc **** #endif
 270:Generated_Source\PSoC5/ErikaOS_1_cortex_mx_ee_cpu.inc **** }
 271:Generated_Source\PSoC5/ErikaOS_1_cortex_mx_ee_cpu.inc **** 
 272:Generated_Source\PSoC5/ErikaOS_1_cortex_mx_ee_cpu.inc **** /**
 273:Generated_Source\PSoC5/ErikaOS_1_cortex_mx_ee_cpu.inc ****  * Return true (not 0) if IRQs are enabled, 0 (false) if IRQ are disabled.
 274:Generated_Source\PSoC5/ErikaOS_1_cortex_mx_ee_cpu.inc ****  */
 275:Generated_Source\PSoC5/ErikaOS_1_cortex_mx_ee_cpu.inc **** __INLINE__ EE_UINT32  EE_cortex_mx_get_IRQ_enabled(void)
 276:Generated_Source\PSoC5/ErikaOS_1_cortex_mx_ee_cpu.inc **** {
 277:Generated_Source\PSoC5/ErikaOS_1_cortex_mx_ee_cpu.inc **** #ifndef __CCS__
 278:Generated_Source\PSoC5/ErikaOS_1_cortex_mx_ee_cpu.inc **** 	EE_UREG ie;
 279:Generated_Source\PSoC5/ErikaOS_1_cortex_mx_ee_cpu.inc **** #endif
 280:Generated_Source\PSoC5/ErikaOS_1_cortex_mx_ee_cpu.inc **** #ifdef __IAR__
 281:Generated_Source\PSoC5/ErikaOS_1_cortex_mx_ee_cpu.inc **** 	ie = __get_PRIMASK();
 282:Generated_Source\PSoC5/ErikaOS_1_cortex_mx_ee_cpu.inc **** #else	/* __IAR__ */
 283:Generated_Source\PSoC5/ErikaOS_1_cortex_mx_ee_cpu.inc **** #ifdef __CCS__
 284:Generated_Source\PSoC5/ErikaOS_1_cortex_mx_ee_cpu.inc **** 	__ASM ("    MRS     r0, PRIMASK\n"
 285:Generated_Source\PSoC5/ErikaOS_1_cortex_mx_ee_cpu.inc **** 	       "    EOR     r0, #1\n"
 286:Generated_Source\PSoC5/ErikaOS_1_cortex_mx_ee_cpu.inc **** 	       "    bx      lr\n");
 287:Generated_Source\PSoC5/ErikaOS_1_cortex_mx_ee_cpu.inc **** #else	/* __CCS__ */
 288:Generated_Source\PSoC5/ErikaOS_1_cortex_mx_ee_cpu.inc **** #ifdef __KEIL__
 289:Generated_Source\PSoC5/ErikaOS_1_cortex_mx_ee_cpu.inc **** 	register EE_FREG PRIMASK __ASM("primask");
 290:Generated_Source\PSoC5/ErikaOS_1_cortex_mx_ee_cpu.inc **** 	ie = PRIMASK;
 291:Generated_Source\PSoC5/ErikaOS_1_cortex_mx_ee_cpu.inc **** #else	/* __KEIL__ */
 292:Generated_Source\PSoC5/ErikaOS_1_cortex_mx_ee_cpu.inc **** 	__ASM volatile ("MRS %0, primask" : "=r" (ie) );
 293:Generated_Source\PSoC5/ErikaOS_1_cortex_mx_ee_cpu.inc **** #endif	/* !__KEIL__ */
 294:Generated_Source\PSoC5/ErikaOS_1_cortex_mx_ee_cpu.inc **** #endif	/* !__CCS__ */
 295:Generated_Source\PSoC5/ErikaOS_1_cortex_mx_ee_cpu.inc **** #endif	/* !__IAR__ */
 296:Generated_Source\PSoC5/ErikaOS_1_cortex_mx_ee_cpu.inc **** #ifdef __CCS__
ARM GAS  C:\Users\mau_g\AppData\Local\Temp\ccZHNTN4.s 			page 19


 297:Generated_Source\PSoC5/ErikaOS_1_cortex_mx_ee_cpu.inc **** 	return 0;
 298:Generated_Source\PSoC5/ErikaOS_1_cortex_mx_ee_cpu.inc **** #else
 299:Generated_Source\PSoC5/ErikaOS_1_cortex_mx_ee_cpu.inc **** 	return EE_cortex_mx_are_IRQs_enabled(ie);
 300:Generated_Source\PSoC5/ErikaOS_1_cortex_mx_ee_cpu.inc **** #endif
 301:Generated_Source\PSoC5/ErikaOS_1_cortex_mx_ee_cpu.inc **** }
 302:Generated_Source\PSoC5/ErikaOS_1_cortex_mx_ee_cpu.inc **** 
 303:Generated_Source\PSoC5/ErikaOS_1_cortex_mx_ee_cpu.inc **** __INLINE__ EE_TYPEISR2PRIO  EE_cortex_mx_get_int_prio(void)
 304:Generated_Source\PSoC5/ErikaOS_1_cortex_mx_ee_cpu.inc **** {
 305:Generated_Source\PSoC5/ErikaOS_1_cortex_mx_ee_cpu.inc **** #ifdef __CORTEX_M4__
 306:Generated_Source\PSoC5/ErikaOS_1_cortex_mx_ee_cpu.inc **** 
 307:Generated_Source\PSoC5/ErikaOS_1_cortex_mx_ee_cpu.inc **** #ifndef __CCS__
 308:Generated_Source\PSoC5/ErikaOS_1_cortex_mx_ee_cpu.inc **** 	register EE_UREG prio;
 309:Generated_Source\PSoC5/ErikaOS_1_cortex_mx_ee_cpu.inc **** #ifdef	__KEIL__
 310:Generated_Source\PSoC5/ErikaOS_1_cortex_mx_ee_cpu.inc **** 	register EE_FREG BASEPRI __ASM("basepri");
 311:Generated_Source\PSoC5/ErikaOS_1_cortex_mx_ee_cpu.inc **** #endif
 312:Generated_Source\PSoC5/ErikaOS_1_cortex_mx_ee_cpu.inc **** 
 313:Generated_Source\PSoC5/ErikaOS_1_cortex_mx_ee_cpu.inc **** #endif
 314:Generated_Source\PSoC5/ErikaOS_1_cortex_mx_ee_cpu.inc **** 
 315:Generated_Source\PSoC5/ErikaOS_1_cortex_mx_ee_cpu.inc **** #ifdef __CCS__
 316:Generated_Source\PSoC5/ErikaOS_1_cortex_mx_ee_cpu.inc **** 	/* NVIC_INT_PRI_S = 5 */
 317:Generated_Source\PSoC5/ErikaOS_1_cortex_mx_ee_cpu.inc **** 	__ASM ("    MRS     R0, BASEPRI\n"
 318:Generated_Source\PSoC5/ErikaOS_1_cortex_mx_ee_cpu.inc **** 	       "    ASR     R0, #5\n"
 319:Generated_Source\PSoC5/ErikaOS_1_cortex_mx_ee_cpu.inc **** 	       "    BLX     LR\n");
 320:Generated_Source\PSoC5/ErikaOS_1_cortex_mx_ee_cpu.inc **** #else	/* __CCS__ */
 321:Generated_Source\PSoC5/ErikaOS_1_cortex_mx_ee_cpu.inc **** #ifdef __KEIL__
 322:Generated_Source\PSoC5/ErikaOS_1_cortex_mx_ee_cpu.inc **** 	prio = BASEPRI;
 323:Generated_Source\PSoC5/ErikaOS_1_cortex_mx_ee_cpu.inc **** #else	/* __KEIL__ */
 324:Generated_Source\PSoC5/ErikaOS_1_cortex_mx_ee_cpu.inc **** #ifdef __GNU__
 325:Generated_Source\PSoC5/ErikaOS_1_cortex_mx_ee_cpu.inc **** 	__ASM volatile("MRS %0, BASEPRI" : "=r" (prio) :: );
 293              		.loc 3 325 0
 294              		.syntax unified
 295              	@ 325 "Generated_Source\PSoC5/ErikaOS_1_cortex_mx_ee_cpu.inc" 1
 296 000c EFF31184 		MRS r4, BASEPRI
 297              	@ 0 "" 2
 298              	.LVL23:
 299              		.thumb
 300              		.syntax unified
 301              	.LBE65:
 302              	.LBE64:
 303              	.LBB66:
 304              	.LBB67:
 326:Generated_Source\PSoC5/ErikaOS_1_cortex_mx_ee_cpu.inc **** #else
 327:Generated_Source\PSoC5/ErikaOS_1_cortex_mx_ee_cpu.inc **** 	__ASM volatile("MRS %0, BASEPRI" :: "=r" (prio));
 328:Generated_Source\PSoC5/ErikaOS_1_cortex_mx_ee_cpu.inc **** #endif	/* !__GNU__ */
 329:Generated_Source\PSoC5/ErikaOS_1_cortex_mx_ee_cpu.inc **** #endif	/* !__KEIL__ */
 330:Generated_Source\PSoC5/ErikaOS_1_cortex_mx_ee_cpu.inc **** #endif	/* !__CCS__ */
 331:Generated_Source\PSoC5/ErikaOS_1_cortex_mx_ee_cpu.inc **** 
 332:Generated_Source\PSoC5/ErikaOS_1_cortex_mx_ee_cpu.inc **** #ifdef __CCS__
 333:Generated_Source\PSoC5/ErikaOS_1_cortex_mx_ee_cpu.inc **** 	return 0;
 334:Generated_Source\PSoC5/ErikaOS_1_cortex_mx_ee_cpu.inc **** #else
 335:Generated_Source\PSoC5/ErikaOS_1_cortex_mx_ee_cpu.inc **** 	return prio >> NVIC_INT_PRI_S;
 336:Generated_Source\PSoC5/ErikaOS_1_cortex_mx_ee_cpu.inc **** #endif
 337:Generated_Source\PSoC5/ErikaOS_1_cortex_mx_ee_cpu.inc **** 
 338:Generated_Source\PSoC5/ErikaOS_1_cortex_mx_ee_cpu.inc **** #else	/* __CORTEX_M4__ */
 339:Generated_Source\PSoC5/ErikaOS_1_cortex_mx_ee_cpu.inc **** 	return 0;
 340:Generated_Source\PSoC5/ErikaOS_1_cortex_mx_ee_cpu.inc **** #endif	/* !__CORTEX_M4__ */
 341:Generated_Source\PSoC5/ErikaOS_1_cortex_mx_ee_cpu.inc **** }
ARM GAS  C:\Users\mau_g\AppData\Local\Temp\ccZHNTN4.s 			page 20


 342:Generated_Source\PSoC5/ErikaOS_1_cortex_mx_ee_cpu.inc **** 
 343:Generated_Source\PSoC5/ErikaOS_1_cortex_mx_ee_cpu.inc **** __INLINE__ void  EE_cortex_mx_set_int_prio(
 344:Generated_Source\PSoC5/ErikaOS_1_cortex_mx_ee_cpu.inc ****   EE_TYPEISR2PRIO prio
 345:Generated_Source\PSoC5/ErikaOS_1_cortex_mx_ee_cpu.inc **** )
 346:Generated_Source\PSoC5/ErikaOS_1_cortex_mx_ee_cpu.inc **** {
 347:Generated_Source\PSoC5/ErikaOS_1_cortex_mx_ee_cpu.inc **** #ifdef __CORTEX_M4__
 348:Generated_Source\PSoC5/ErikaOS_1_cortex_mx_ee_cpu.inc **** #ifdef __CCS__
 349:Generated_Source\PSoC5/ErikaOS_1_cortex_mx_ee_cpu.inc **** 	/* NVIC_INT_PRI_S = 5 */
 350:Generated_Source\PSoC5/ErikaOS_1_cortex_mx_ee_cpu.inc **** 	__ASM ("    LSL    R0, #5\n"
 351:Generated_Source\PSoC5/ErikaOS_1_cortex_mx_ee_cpu.inc **** 	       "    MSR    BASEPRI, R0\n");
 352:Generated_Source\PSoC5/ErikaOS_1_cortex_mx_ee_cpu.inc **** #else	/* __CCS__ */
 353:Generated_Source\PSoC5/ErikaOS_1_cortex_mx_ee_cpu.inc **** #ifdef __KEIL__
 354:Generated_Source\PSoC5/ErikaOS_1_cortex_mx_ee_cpu.inc **** 	register EE_FREG BASEPRI __ASM("basepri");
 355:Generated_Source\PSoC5/ErikaOS_1_cortex_mx_ee_cpu.inc **** 	BASEPRI = (prio << NVIC_INT_PRI_S);
 356:Generated_Source\PSoC5/ErikaOS_1_cortex_mx_ee_cpu.inc **** #else	/* __KEIL__ */
 357:Generated_Source\PSoC5/ErikaOS_1_cortex_mx_ee_cpu.inc **** #ifdef __GNU__
 358:Generated_Source\PSoC5/ErikaOS_1_cortex_mx_ee_cpu.inc **** 	__ASM volatile("MSR BASEPRI, %0" :: "r" (prio << NVIC_INT_PRI_S) : );
 359:Generated_Source\PSoC5/ErikaOS_1_cortex_mx_ee_cpu.inc **** #else
 360:Generated_Source\PSoC5/ErikaOS_1_cortex_mx_ee_cpu.inc **** 	__ASM volatile("MSR BASEPRI, %0" :: "r" (prio << NVIC_INT_PRI_S));
 361:Generated_Source\PSoC5/ErikaOS_1_cortex_mx_ee_cpu.inc **** #endif	/* !__GNU__ */
 362:Generated_Source\PSoC5/ErikaOS_1_cortex_mx_ee_cpu.inc **** #endif	/* !__KEIL__ */
 363:Generated_Source\PSoC5/ErikaOS_1_cortex_mx_ee_cpu.inc **** #endif	/* !__CCS__ */
 364:Generated_Source\PSoC5/ErikaOS_1_cortex_mx_ee_cpu.inc **** #endif	/* __CORTEX_M4__ */
 365:Generated_Source\PSoC5/ErikaOS_1_cortex_mx_ee_cpu.inc **** }
 366:Generated_Source\PSoC5/ErikaOS_1_cortex_mx_ee_cpu.inc **** 
 367:Generated_Source\PSoC5/ErikaOS_1_cortex_mx_ee_cpu.inc **** __INLINE__ EE_TYPEISR2PRIO  EE_cortex_mx_get_isr_prio(
 368:Generated_Source\PSoC5/ErikaOS_1_cortex_mx_ee_cpu.inc ****   void
 369:Generated_Source\PSoC5/ErikaOS_1_cortex_mx_ee_cpu.inc **** )
 370:Generated_Source\PSoC5/ErikaOS_1_cortex_mx_ee_cpu.inc **** {
 371:Generated_Source\PSoC5/ErikaOS_1_cortex_mx_ee_cpu.inc **** #ifdef __CORTEX_M4__
 372:Generated_Source\PSoC5/ErikaOS_1_cortex_mx_ee_cpu.inc ****   register EE_UREG vectact = NVIC_INT_CTRL_R & NVIC_INT_CTRL_VEC_ACT_M;
 305              		.loc 3 372 0
 306 0010 1E4B     		ldr	r3, .L28
 307 0012 1B68     		ldr	r3, [r3]
 308 0014 DBB2     		uxtb	r3, r3
 309              	.LVL24:
 373:Generated_Source\PSoC5/ErikaOS_1_cortex_mx_ee_cpu.inc ****   register EE_TYPEISR2PRIO prio = 0;
 374:Generated_Source\PSoC5/ErikaOS_1_cortex_mx_ee_cpu.inc **** 
 375:Generated_Source\PSoC5/ErikaOS_1_cortex_mx_ee_cpu.inc ****   if (vectact > EE_CORTEX_MX_SYSTICK_EXC_NUM) {
 310              		.loc 3 375 0
 311 0016 0F2B     		cmp	r3, #15
 312 0018 10D9     		bls	.L23
 376:Generated_Source\PSoC5/ErikaOS_1_cortex_mx_ee_cpu.inc ****     vectact -= EE_CORTEX_MX_SYSTICK_EXC_NUM + 1;
 313              		.loc 3 376 0
 314 001a 103B     		subs	r3, r3, #16
 315              	.LVL25:
 377:Generated_Source\PSoC5/ErikaOS_1_cortex_mx_ee_cpu.inc ****     prio = NVIC_GET_PRI(vectact);
 316              		.loc 3 377 0
 317 001c 23F00302 		bic	r2, r3, #3
 318 0020 02F16042 		add	r2, r2, #-536870912
 319 0024 02F56442 		add	r2, r2, #58368
 320 0028 1168     		ldr	r1, [r2]
 321 002a DB00     		lsls	r3, r3, #3
 322              	.LVL26:
 323 002c 03F01803 		and	r3, r3, #24
 324 0030 E022     		movs	r2, #224
 325 0032 9A40     		lsls	r2, r2, r3
ARM GAS  C:\Users\mau_g\AppData\Local\Temp\ccZHNTN4.s 			page 21


 326 0034 0A40     		ands	r2, r2, r1
 327 0036 22FA03F3 		lsr	r3, r2, r3
 328              	.LVL27:
 329 003a 06E0     		b	.L24
 330              	.LVL28:
 331              	.L23:
 378:Generated_Source\PSoC5/ErikaOS_1_cortex_mx_ee_cpu.inc ****   }
 379:Generated_Source\PSoC5/ErikaOS_1_cortex_mx_ee_cpu.inc **** #ifdef	__USE_SYSTICK__
 380:Generated_Source\PSoC5/ErikaOS_1_cortex_mx_ee_cpu.inc ****   else if (vectact == EE_CORTEX_MX_SYSTICK_EXC_NUM) {
 332              		.loc 3 380 0
 333 003c 0F2B     		cmp	r3, #15
 334 003e 03D1     		bne	.L27
 381:Generated_Source\PSoC5/ErikaOS_1_cortex_mx_ee_cpu.inc ****     prio = NVIC_SYS_PRI3_R >> NVIC_SYS_PRI3_TICK_S;
 335              		.loc 3 381 0
 336 0040 134B     		ldr	r3, .L28+4
 337              	.LVL29:
 338 0042 1B68     		ldr	r3, [r3]
 339 0044 1B0E     		lsrs	r3, r3, #24
 340              	.LVL30:
 341 0046 00E0     		b	.L24
 342              	.LVL31:
 343              	.L27:
 373:Generated_Source\PSoC5/ErikaOS_1_cortex_mx_ee_cpu.inc **** 
 344              		.loc 3 373 0
 345 0048 0023     		movs	r3, #0
 346              	.LVL32:
 347              	.L24:
 348              	.LBE67:
 349              	.LBE66:
 350              	.LBB68:
 351              	.LBB69:
 358:Generated_Source\PSoC5/ErikaOS_1_cortex_mx_ee_cpu.inc **** #else
 352              		.loc 3 358 0
 353              		.syntax unified
 354              	@ 358 "Generated_Source\PSoC5/ErikaOS_1_cortex_mx_ee_cpu.inc" 1
 355 004a 83F31188 		MSR BASEPRI, r3
 356              	@ 0 "" 2
 357              		.thumb
 358              		.syntax unified
 359              	.LBE69:
 360              	.LBE68:
 361              	.LBB70:
 362              	.LBB71:
 363              		.file 4 "Generated_Source\\PSoC5/ErikaOS_1_common_ee_irqstub.inc"
   1:Generated_Source\PSoC5/ErikaOS_1_common_ee_irqstub.inc **** /* ###*B*###
   2:Generated_Source\PSoC5/ErikaOS_1_common_ee_irqstub.inc ****  * ERIKA Enterprise - a tiny RTOS for small microcontrollers
   3:Generated_Source\PSoC5/ErikaOS_1_common_ee_irqstub.inc ****  *
   4:Generated_Source\PSoC5/ErikaOS_1_common_ee_irqstub.inc ****  * Copyright (C) 2002-2010  Evidence Srl
   5:Generated_Source\PSoC5/ErikaOS_1_common_ee_irqstub.inc ****  *
   6:Generated_Source\PSoC5/ErikaOS_1_common_ee_irqstub.inc ****  * This file is part of ERIKA Enterprise.
   7:Generated_Source\PSoC5/ErikaOS_1_common_ee_irqstub.inc ****  *
   8:Generated_Source\PSoC5/ErikaOS_1_common_ee_irqstub.inc ****  * ERIKA Enterprise is free software; you can redistribute it
   9:Generated_Source\PSoC5/ErikaOS_1_common_ee_irqstub.inc ****  * and/or modify it under the terms of the GNU General Public License
  10:Generated_Source\PSoC5/ErikaOS_1_common_ee_irqstub.inc ****  * version 2 as published by the Free Software Foundation,
  11:Generated_Source\PSoC5/ErikaOS_1_common_ee_irqstub.inc ****  * (with a special exception described below).
  12:Generated_Source\PSoC5/ErikaOS_1_common_ee_irqstub.inc ****  *
  13:Generated_Source\PSoC5/ErikaOS_1_common_ee_irqstub.inc ****  * Linking this code statically or dynamically with other modules is
ARM GAS  C:\Users\mau_g\AppData\Local\Temp\ccZHNTN4.s 			page 22


  14:Generated_Source\PSoC5/ErikaOS_1_common_ee_irqstub.inc ****  * making a combined work based on this code.  Thus, the terms and
  15:Generated_Source\PSoC5/ErikaOS_1_common_ee_irqstub.inc ****  * conditions of the GNU General Public License cover the whole
  16:Generated_Source\PSoC5/ErikaOS_1_common_ee_irqstub.inc ****  * combination.
  17:Generated_Source\PSoC5/ErikaOS_1_common_ee_irqstub.inc ****  *
  18:Generated_Source\PSoC5/ErikaOS_1_common_ee_irqstub.inc ****  * As a special exception, the copyright holders of this library give you
  19:Generated_Source\PSoC5/ErikaOS_1_common_ee_irqstub.inc ****  * permission to link this code with independent modules to produce an
  20:Generated_Source\PSoC5/ErikaOS_1_common_ee_irqstub.inc ****  * executable, regardless of the license terms of these independent
  21:Generated_Source\PSoC5/ErikaOS_1_common_ee_irqstub.inc ****  * modules, and to copy and distribute the resulting executable under
  22:Generated_Source\PSoC5/ErikaOS_1_common_ee_irqstub.inc ****  * terms of your choice, provided that you also meet, for each linked
  23:Generated_Source\PSoC5/ErikaOS_1_common_ee_irqstub.inc ****  * independent module, the terms and conditions of the license of that
  24:Generated_Source\PSoC5/ErikaOS_1_common_ee_irqstub.inc ****  * module.  An independent module is a module which is not derived from
  25:Generated_Source\PSoC5/ErikaOS_1_common_ee_irqstub.inc ****  * or based on this library.  If you modify this code, you may extend
  26:Generated_Source\PSoC5/ErikaOS_1_common_ee_irqstub.inc ****  * this exception to your version of the code, but you are not
  27:Generated_Source\PSoC5/ErikaOS_1_common_ee_irqstub.inc ****  * obligated to do so.  If you do not wish to do so, delete this
  28:Generated_Source\PSoC5/ErikaOS_1_common_ee_irqstub.inc ****  * exception statement from your version.
  29:Generated_Source\PSoC5/ErikaOS_1_common_ee_irqstub.inc ****  *
  30:Generated_Source\PSoC5/ErikaOS_1_common_ee_irqstub.inc ****  * ERIKA Enterprise is distributed in the hope that it will be
  31:Generated_Source\PSoC5/ErikaOS_1_common_ee_irqstub.inc ****  * useful, but WITHOUT ANY WARRANTY; without even the implied warranty
  32:Generated_Source\PSoC5/ErikaOS_1_common_ee_irqstub.inc ****  * of MERCHANTABILITY or FITNESS FOR A PARTICULAR PURPOSE.  See the
  33:Generated_Source\PSoC5/ErikaOS_1_common_ee_irqstub.inc ****  * GNU General Public License version 2 for more details.
  34:Generated_Source\PSoC5/ErikaOS_1_common_ee_irqstub.inc ****  *
  35:Generated_Source\PSoC5/ErikaOS_1_common_ee_irqstub.inc ****  * You should have received a copy of the GNU General Public License
  36:Generated_Source\PSoC5/ErikaOS_1_common_ee_irqstub.inc ****  * version 2 along with ERIKA Enterprise; if not, write to the
  37:Generated_Source\PSoC5/ErikaOS_1_common_ee_irqstub.inc ****  * Free Software Foundation, Inc., 51 Franklin Street, Fifth Floor,
  38:Generated_Source\PSoC5/ErikaOS_1_common_ee_irqstub.inc ****  * Boston, MA 02110-1301 USA.
  39:Generated_Source\PSoC5/ErikaOS_1_common_ee_irqstub.inc ****  * ###*E*### */
  40:Generated_Source\PSoC5/ErikaOS_1_common_ee_irqstub.inc **** 
  41:Generated_Source\PSoC5/ErikaOS_1_common_ee_irqstub.inc **** /*
  42:Generated_Source\PSoC5/ErikaOS_1_common_ee_irqstub.inc ****  * Some IRQ-related stuff.
  43:Generated_Source\PSoC5/ErikaOS_1_common_ee_irqstub.inc ****  * Author: 2009-2010,  Bernardo  Dal Seno
  44:Generated_Source\PSoC5/ErikaOS_1_common_ee_irqstub.inc ****  */
  45:Generated_Source\PSoC5/ErikaOS_1_common_ee_irqstub.inc **** 
  46:Generated_Source\PSoC5/ErikaOS_1_common_ee_irqstub.inc **** /*
  47:Generated_Source\PSoC5/ErikaOS_1_common_ee_irqstub.inc ****  * PSoC Port and API Generation
  48:Generated_Source\PSoC5/ErikaOS_1_common_ee_irqstub.inc ****  * Carlos Fernando Meier Martinez
  49:Generated_Source\PSoC5/ErikaOS_1_common_ee_irqstub.inc ****  * Hochschule Darmstadt, Germany. 2017.
  50:Generated_Source\PSoC5/ErikaOS_1_common_ee_irqstub.inc ****  */
  51:Generated_Source\PSoC5/ErikaOS_1_common_ee_irqstub.inc **** 
  52:Generated_Source\PSoC5/ErikaOS_1_common_ee_irqstub.inc **** /*******************************************************************************
  53:Generated_Source\PSoC5/ErikaOS_1_common_ee_irqstub.inc ****  *                        !!!WARNING!!!
  54:Generated_Source\PSoC5/ErikaOS_1_common_ee_irqstub.inc ****  * This header depends on "cpu/common/inc/ee_context.inc" or your own
  55:Generated_Source\PSoC5/ErikaOS_1_common_ee_irqstub.inc ****  * implementation of the same. You should include it file before including this
  56:Generated_Source\PSoC5/ErikaOS_1_common_ee_irqstub.inc ****  * file
  57:Generated_Source\PSoC5/ErikaOS_1_common_ee_irqstub.inc ****  ******************************************************************************/
  58:Generated_Source\PSoC5/ErikaOS_1_common_ee_irqstub.inc **** 
  59:Generated_Source\PSoC5/ErikaOS_1_common_ee_irqstub.inc **** #ifndef PKG_CPU_COMMON_INC_EE_IRQSTUB_H
  60:Generated_Source\PSoC5/ErikaOS_1_common_ee_irqstub.inc **** #define PKG_CPU_COMMON_INC_EE_IRQSTUB_H
  61:Generated_Source\PSoC5/ErikaOS_1_common_ee_irqstub.inc **** 
  62:Generated_Source\PSoC5/ErikaOS_1_common_ee_irqstub.inc **** /* this bring EE_IRQ_nesting_level definition */
  63:Generated_Source\PSoC5/ErikaOS_1_common_ee_irqstub.inc **** #include "ErikaOS_1_common_ee_primitives.inc"
  64:Generated_Source\PSoC5/ErikaOS_1_common_ee_irqstub.inc **** 
  65:Generated_Source\PSoC5/ErikaOS_1_common_ee_irqstub.inc **** /* True if we are inside an interrupt-serving routine */
  66:Generated_Source\PSoC5/ErikaOS_1_common_ee_irqstub.inc **** __INLINE__ EE_TYPEBOOL  EE_is_inside_ISR_call( void )
  67:Generated_Source\PSoC5/ErikaOS_1_common_ee_irqstub.inc **** {
  68:Generated_Source\PSoC5/ErikaOS_1_common_ee_irqstub.inc ****   return (EE_IRQ_nesting_level > 0U);
  69:Generated_Source\PSoC5/ErikaOS_1_common_ee_irqstub.inc **** }
  70:Generated_Source\PSoC5/ErikaOS_1_common_ee_irqstub.inc **** 
ARM GAS  C:\Users\mau_g\AppData\Local\Temp\ccZHNTN4.s 			page 23


  71:Generated_Source\PSoC5/ErikaOS_1_common_ee_irqstub.inc **** 
  72:Generated_Source\PSoC5/ErikaOS_1_common_ee_irqstub.inc **** /* EE_decrement_IRQ_nesting_level() and EE_increment_IRQ_nesting_level() are
  73:Generated_Source\PSoC5/ErikaOS_1_common_ee_irqstub.inc ****  * used to keep track of the current IRQ nesting level.
  74:Generated_Source\PSoC5/ErikaOS_1_common_ee_irqstub.inc ****  * EE_std_enableIRQ_nested() and EE_std_disableIRQ_nested() are used to control
  75:Generated_Source\PSoC5/ErikaOS_1_common_ee_irqstub.inc ****  * when IRQ nesting is enabled.
  76:Generated_Source\PSoC5/ErikaOS_1_common_ee_irqstub.inc ****  */
  77:Generated_Source\PSoC5/ErikaOS_1_common_ee_irqstub.inc **** #if defined(__AS_SC4__)
  78:Generated_Source\PSoC5/ErikaOS_1_common_ee_irqstub.inc **** /* For SC4 the nesting level is updated inside the prestub and postub */
  79:Generated_Source\PSoC5/ErikaOS_1_common_ee_irqstub.inc **** __INLINE__ void  EE_decrement_IRQ_nesting_level(void) {}
  80:Generated_Source\PSoC5/ErikaOS_1_common_ee_irqstub.inc **** __INLINE__ void  EE_increment_IRQ_nesting_level(void) {}
  81:Generated_Source\PSoC5/ErikaOS_1_common_ee_irqstub.inc **** __INLINE__ void  EE_std_enableIRQ_nested(void) {}
  82:Generated_Source\PSoC5/ErikaOS_1_common_ee_irqstub.inc **** __INLINE__ void  EE_std_disableIRQ_nested(void) {}
  83:Generated_Source\PSoC5/ErikaOS_1_common_ee_irqstub.inc **** #elif defined(__ALLOW_NESTED_IRQ__)
  84:Generated_Source\PSoC5/ErikaOS_1_common_ee_irqstub.inc **** __INLINE__ void  EE_decrement_IRQ_nesting_level(void) { --EE_IRQ_nesting_level; }
  85:Generated_Source\PSoC5/ErikaOS_1_common_ee_irqstub.inc **** __INLINE__ void  EE_increment_IRQ_nesting_level(void) { ++EE_IRQ_nesting_level; }
 364              		.loc 4 85 0
 365 004e 114A     		ldr	r2, .L28+8
 366 0050 1368     		ldr	r3, [r2]
 367 0052 0133     		adds	r3, r3, #1
 368 0054 1360     		str	r3, [r2]
 369              	.LBE71:
 370              	.LBE70:
  85:Source\asw/tsk_io.c **** {
 371              		.loc 1 85 0
 372 0056 012B     		cmp	r3, #1
 373 0058 01D1     		bne	.L25
  85:Source\asw/tsk_io.c **** {
 374              		.loc 1 85 0 is_stmt 0 discriminator 1
 375 005a FFF7FEFF 		bl	EE_cortex_mx_change_IRQ_stack
 376              	.LVL33:
 377              	.L25:
 378              	.LBB72:
 379              	.LBB73:
 191:Generated_Source\PSoC5/ErikaOS_1_cortex_mx_ee_cpu.inc **** #endif	/* !__KEIL__ */
 380              		.loc 3 191 0 is_stmt 1 discriminator 3
 381              		.syntax unified
 382              	@ 191 "Generated_Source\PSoC5/ErikaOS_1_cortex_mx_ee_cpu.inc" 1
 383 005e 62B6     		cpsie i
 384              	@ 0 "" 2
 385              		.thumb
 386              		.syntax unified
 387              	.LBE73:
 388              	.LBE72:
  85:Source\asw/tsk_io.c **** {
 389              		.loc 1 85 0 discriminator 3
 390 0060 FFF7FEFF 		bl	ISR2_isr_Button
 391              	.LVL34:
 392              	.LBB74:
 393              	.LBB75:
 211:Generated_Source\PSoC5/ErikaOS_1_cortex_mx_ee_cpu.inc **** #endif	/* !__KEIL__ */
 394              		.loc 3 211 0 discriminator 3
 395              		.syntax unified
 396              	@ 211 "Generated_Source\PSoC5/ErikaOS_1_cortex_mx_ee_cpu.inc" 1
 397 0064 72B6     		cpsid i
 398              	@ 0 "" 2
 399              	.LVL35:
 400              		.thumb
ARM GAS  C:\Users\mau_g\AppData\Local\Temp\ccZHNTN4.s 			page 24


 401              		.syntax unified
 402              	.LBE75:
 403              	.LBE74:
 404              	.LBB76:
 405              	.LBB77:
 358:Generated_Source\PSoC5/ErikaOS_1_cortex_mx_ee_cpu.inc **** #else
 406              		.loc 3 358 0 discriminator 3
 407              		.syntax unified
 408              	@ 358 "Generated_Source\PSoC5/ErikaOS_1_cortex_mx_ee_cpu.inc" 1
 409 0066 84F31188 		MSR BASEPRI, r4
 410              	@ 0 "" 2
 411              	.LVL36:
 412              		.thumb
 413              		.syntax unified
 414              	.LBE77:
 415              	.LBE76:
 416              	.LBB78:
 417              	.LBB79:
  86:Generated_Source\PSoC5/ErikaOS_1_common_ee_irqstub.inc **** /*  EE_std_enableIRQ_nested() and EE_std_disableIRQ_nested() must be defined in
  87:Generated_Source\PSoC5/ErikaOS_1_common_ee_irqstub.inc ****  *  the platform-dependent part, as they dependend on the particular way
  88:Generated_Source\PSoC5/ErikaOS_1_common_ee_irqstub.inc ****  *  interrupts are handled by the CPU. */
  89:Generated_Source\PSoC5/ErikaOS_1_common_ee_irqstub.inc **** #else
  90:Generated_Source\PSoC5/ErikaOS_1_common_ee_irqstub.inc **** __INLINE__ void  EE_decrement_IRQ_nesting_level(void) { EE_IRQ_nesting_level = 0U; }
  91:Generated_Source\PSoC5/ErikaOS_1_common_ee_irqstub.inc **** __INLINE__ void  EE_increment_IRQ_nesting_level(void) { EE_IRQ_nesting_level = 1U; }
  92:Generated_Source\PSoC5/ErikaOS_1_common_ee_irqstub.inc **** __INLINE__ void  EE_std_enableIRQ_nested(void) {}
  93:Generated_Source\PSoC5/ErikaOS_1_common_ee_irqstub.inc **** __INLINE__ void  EE_std_disableIRQ_nested(void) {}
  94:Generated_Source\PSoC5/ErikaOS_1_common_ee_irqstub.inc **** #endif
  95:Generated_Source\PSoC5/ErikaOS_1_common_ee_irqstub.inc **** 
  96:Generated_Source\PSoC5/ErikaOS_1_common_ee_irqstub.inc **** #if (defined(__OO_BCC1__)) || (defined(__OO_BCC2__)) || (defined(__OO_ECC1__)) \
  97:Generated_Source\PSoC5/ErikaOS_1_common_ee_irqstub.inc ****   || (defined(__OO_ECC2__)) || (defined(__AS_SC4__))
  98:Generated_Source\PSoC5/ErikaOS_1_common_ee_irqstub.inc **** /* Function to be called at the end of a function service interrupt, to execute
  99:Generated_Source\PSoC5/ErikaOS_1_common_ee_irqstub.inc ****    clean-up specifiend in Autosar standard */
 100:Generated_Source\PSoC5/ErikaOS_1_common_ee_irqstub.inc **** __INLINE__ void  EE_std_end_IRQ_post_stub(void)
 101:Generated_Source\PSoC5/ErikaOS_1_common_ee_irqstub.inc **** {
 102:Generated_Source\PSoC5/ErikaOS_1_common_ee_irqstub.inc ****   EE_IRQ_end_post_stub();
 418              		.loc 4 102 0 discriminator 3
 419 006a FFF7FEFF 		bl	EE_IRQ_end_post_stub
 420              	.LVL37:
 421              	.LBE79:
 422              	.LBE78:
 423              	.LBB80:
 424              	.LBB81:
  84:Generated_Source\PSoC5/ErikaOS_1_common_ee_irqstub.inc **** __INLINE__ void  EE_increment_IRQ_nesting_level(void) { ++EE_IRQ_nesting_level; }
 425              		.loc 4 84 0 discriminator 3
 426 006e 094A     		ldr	r2, .L28+8
 427 0070 1368     		ldr	r3, [r2]
 428 0072 013B     		subs	r3, r3, #1
 429 0074 1360     		str	r3, [r2]
 430              	.LBE81:
 431              	.LBE80:
  85:Source\asw/tsk_io.c **** {
 432              		.loc 1 85 0 discriminator 3
 433 0076 1BB9     		cbnz	r3, .L26
  85:Source\asw/tsk_io.c **** {
 434              		.loc 1 85 0 is_stmt 0 discriminator 4
 435 0078 FFF7FEFF 		bl	EE_cortex_mx_change_IRQ_stack_back
 436              	.LVL38:
ARM GAS  C:\Users\mau_g\AppData\Local\Temp\ccZHNTN4.s 			page 25


 437              	.LBB82:
 438              	.LBB83:
 439              		.file 5 "Generated_Source\\PSoC5/ErikaOS_1_cortex_mx_ee_irq_cng_cont.inc"
   1:Generated_Source\PSoC5/ErikaOS_1_cortex_mx_ee_irq_cng_cont.inc **** /* ###*B*###
   2:Generated_Source\PSoC5/ErikaOS_1_cortex_mx_ee_irq_cng_cont.inc ****  * ERIKA Enterprise - a tiny RTOS for small microcontrollers
   3:Generated_Source\PSoC5/ErikaOS_1_cortex_mx_ee_irq_cng_cont.inc ****  *
   4:Generated_Source\PSoC5/ErikaOS_1_cortex_mx_ee_irq_cng_cont.inc ****  * Copyright (C) 2002-2011  Evidence Srl
   5:Generated_Source\PSoC5/ErikaOS_1_cortex_mx_ee_irq_cng_cont.inc ****  *
   6:Generated_Source\PSoC5/ErikaOS_1_cortex_mx_ee_irq_cng_cont.inc ****  * This file is part of ERIKA Enterprise.
   7:Generated_Source\PSoC5/ErikaOS_1_cortex_mx_ee_irq_cng_cont.inc ****  *
   8:Generated_Source\PSoC5/ErikaOS_1_cortex_mx_ee_irq_cng_cont.inc ****  * ERIKA Enterprise is free software; you can redistribute it
   9:Generated_Source\PSoC5/ErikaOS_1_cortex_mx_ee_irq_cng_cont.inc ****  * and/or modify it under the terms of the GNU General Public License
  10:Generated_Source\PSoC5/ErikaOS_1_cortex_mx_ee_irq_cng_cont.inc ****  * version 2 as published by the Free Software Foundation, 
  11:Generated_Source\PSoC5/ErikaOS_1_cortex_mx_ee_irq_cng_cont.inc ****  * (with a special exception described below).
  12:Generated_Source\PSoC5/ErikaOS_1_cortex_mx_ee_irq_cng_cont.inc ****  *
  13:Generated_Source\PSoC5/ErikaOS_1_cortex_mx_ee_irq_cng_cont.inc ****  * Linking this code statically or dynamically with other modules is
  14:Generated_Source\PSoC5/ErikaOS_1_cortex_mx_ee_irq_cng_cont.inc ****  * making a combined work based on this code.  Thus, the terms and
  15:Generated_Source\PSoC5/ErikaOS_1_cortex_mx_ee_irq_cng_cont.inc ****  * conditions of the GNU General Public License cover the whole
  16:Generated_Source\PSoC5/ErikaOS_1_cortex_mx_ee_irq_cng_cont.inc ****  * combination.
  17:Generated_Source\PSoC5/ErikaOS_1_cortex_mx_ee_irq_cng_cont.inc ****  *
  18:Generated_Source\PSoC5/ErikaOS_1_cortex_mx_ee_irq_cng_cont.inc ****  * As a special exception, the copyright holders of this library give you
  19:Generated_Source\PSoC5/ErikaOS_1_cortex_mx_ee_irq_cng_cont.inc ****  * permission to link this code with independent modules to produce an
  20:Generated_Source\PSoC5/ErikaOS_1_cortex_mx_ee_irq_cng_cont.inc ****  * executable, regardless of the license terms of these independent
  21:Generated_Source\PSoC5/ErikaOS_1_cortex_mx_ee_irq_cng_cont.inc ****  * modules, and to copy and distribute the resulting executable under
  22:Generated_Source\PSoC5/ErikaOS_1_cortex_mx_ee_irq_cng_cont.inc ****  * terms of your choice, provided that you also meet, for each linked
  23:Generated_Source\PSoC5/ErikaOS_1_cortex_mx_ee_irq_cng_cont.inc ****  * independent module, the terms and conditions of the license of that
  24:Generated_Source\PSoC5/ErikaOS_1_cortex_mx_ee_irq_cng_cont.inc ****  * module.  An independent module is a module which is not derived from
  25:Generated_Source\PSoC5/ErikaOS_1_cortex_mx_ee_irq_cng_cont.inc ****  * or based on this library.  If you modify this code, you may extend
  26:Generated_Source\PSoC5/ErikaOS_1_cortex_mx_ee_irq_cng_cont.inc ****  * this exception to your version of the code, but you are not
  27:Generated_Source\PSoC5/ErikaOS_1_cortex_mx_ee_irq_cng_cont.inc ****  * obligated to do so.  If you do not wish to do so, delete this
  28:Generated_Source\PSoC5/ErikaOS_1_cortex_mx_ee_irq_cng_cont.inc ****  * exception statement from your version.
  29:Generated_Source\PSoC5/ErikaOS_1_cortex_mx_ee_irq_cng_cont.inc ****  *
  30:Generated_Source\PSoC5/ErikaOS_1_cortex_mx_ee_irq_cng_cont.inc ****  * ERIKA Enterprise is distributed in the hope that it will be
  31:Generated_Source\PSoC5/ErikaOS_1_cortex_mx_ee_irq_cng_cont.inc ****  * useful, but WITHOUT ANY WARRANTY; without even the implied warranty
  32:Generated_Source\PSoC5/ErikaOS_1_cortex_mx_ee_irq_cng_cont.inc ****  * of MERCHANTABILITY or FITNESS FOR A PARTICULAR PURPOSE.  See the
  33:Generated_Source\PSoC5/ErikaOS_1_cortex_mx_ee_irq_cng_cont.inc ****  * GNU General Public License version 2 for more details.
  34:Generated_Source\PSoC5/ErikaOS_1_cortex_mx_ee_irq_cng_cont.inc ****  *
  35:Generated_Source\PSoC5/ErikaOS_1_cortex_mx_ee_irq_cng_cont.inc ****  * You should have received a copy of the GNU General Public License
  36:Generated_Source\PSoC5/ErikaOS_1_cortex_mx_ee_irq_cng_cont.inc ****  * version 2 along with ERIKA Enterprise; if not, write to the
  37:Generated_Source\PSoC5/ErikaOS_1_cortex_mx_ee_irq_cng_cont.inc ****  * Free Software Foundation, Inc., 51 Franklin Street, Fifth Floor,
  38:Generated_Source\PSoC5/ErikaOS_1_cortex_mx_ee_irq_cng_cont.inc ****  * Boston, MA 02110-1301 USA.
  39:Generated_Source\PSoC5/ErikaOS_1_cortex_mx_ee_irq_cng_cont.inc ****  * ###*E*### */
  40:Generated_Source\PSoC5/ErikaOS_1_cortex_mx_ee_irq_cng_cont.inc **** 
  41:Generated_Source\PSoC5/ErikaOS_1_cortex_mx_ee_irq_cng_cont.inc ****  /** 
  42:Generated_Source\PSoC5/ErikaOS_1_cortex_mx_ee_irq_cng_cont.inc **** 	
  43:Generated_Source\PSoC5/ErikaOS_1_cortex_mx_ee_irq_cng_cont.inc **** 	@file	ee_irq_cng_cont.h
  44:Generated_Source\PSoC5/ErikaOS_1_cortex_mx_ee_irq_cng_cont.inc **** 	@brief	Function active the context change interrupt
  45:Generated_Source\PSoC5/ErikaOS_1_cortex_mx_ee_irq_cng_cont.inc **** 	@author	Gianluca Franchino
  46:Generated_Source\PSoC5/ErikaOS_1_cortex_mx_ee_irq_cng_cont.inc **** 	@author	Giuseppe Serano
  47:Generated_Source\PSoC5/ErikaOS_1_cortex_mx_ee_irq_cng_cont.inc **** 	@date	2012
  48:Generated_Source\PSoC5/ErikaOS_1_cortex_mx_ee_irq_cng_cont.inc **** */ 
  49:Generated_Source\PSoC5/ErikaOS_1_cortex_mx_ee_irq_cng_cont.inc ****     
  50:Generated_Source\PSoC5/ErikaOS_1_cortex_mx_ee_irq_cng_cont.inc **** /*
  51:Generated_Source\PSoC5/ErikaOS_1_cortex_mx_ee_irq_cng_cont.inc ****  * PSoC Port and API Generation
  52:Generated_Source\PSoC5/ErikaOS_1_cortex_mx_ee_irq_cng_cont.inc ****  * Carlos Fernando Meier Martinez
  53:Generated_Source\PSoC5/ErikaOS_1_cortex_mx_ee_irq_cng_cont.inc ****  * Hochschule Darmstadt, Germany. 2017.
  54:Generated_Source\PSoC5/ErikaOS_1_cortex_mx_ee_irq_cng_cont.inc ****  */
ARM GAS  C:\Users\mau_g\AppData\Local\Temp\ccZHNTN4.s 			page 26


  55:Generated_Source\PSoC5/ErikaOS_1_cortex_mx_ee_irq_cng_cont.inc **** 
  56:Generated_Source\PSoC5/ErikaOS_1_cortex_mx_ee_irq_cng_cont.inc **** #ifndef __INCLUDE_CORTEX_MX_IRQ_CNG_CONTEXT_H__
  57:Generated_Source\PSoC5/ErikaOS_1_cortex_mx_ee_irq_cng_cont.inc **** #define __INCLUDE_CORTEX_MX_IRQ_CNG_CONTEXT_H__
  58:Generated_Source\PSoC5/ErikaOS_1_cortex_mx_ee_irq_cng_cont.inc **** 
  59:Generated_Source\PSoC5/ErikaOS_1_cortex_mx_ee_irq_cng_cont.inc **** #ifdef __GNU__
  60:Generated_Source\PSoC5/ErikaOS_1_cortex_mx_ee_irq_cng_cont.inc **** #include "ErikaOS_1_common_ee_compiler_gcc.inc"
  61:Generated_Source\PSoC5/ErikaOS_1_cortex_mx_ee_irq_cng_cont.inc **** #endif
  62:Generated_Source\PSoC5/ErikaOS_1_cortex_mx_ee_irq_cng_cont.inc **** 
  63:Generated_Source\PSoC5/ErikaOS_1_cortex_mx_ee_irq_cng_cont.inc **** /* Implemented in ee_<compiler>_change_context_isr.s */
  64:Generated_Source\PSoC5/ErikaOS_1_cortex_mx_ee_irq_cng_cont.inc **** extern void EE_switch_context(void);
  65:Generated_Source\PSoC5/ErikaOS_1_cortex_mx_ee_irq_cng_cont.inc **** 
  66:Generated_Source\PSoC5/ErikaOS_1_cortex_mx_ee_irq_cng_cont.inc **** __INLINE__ void  EE_cortex_mx_IRQ_active_change_context(void)
  67:Generated_Source\PSoC5/ErikaOS_1_cortex_mx_ee_irq_cng_cont.inc **** {
  68:Generated_Source\PSoC5/ErikaOS_1_cortex_mx_ee_irq_cng_cont.inc **** 	EE_switch_context();
 440              		.loc 5 68 0 is_stmt 1 discriminator 4
 441 007c FFF7FEFF 		bl	EE_switch_context
 442              	.LVL39:
 443              	.L26:
 444              	.LBE83:
 445              	.LBE82:
 446              	.LBB84:
 447              	.LBB85:
 191:Generated_Source\PSoC5/ErikaOS_1_cortex_mx_ee_cpu.inc **** #endif	/* !__KEIL__ */
 448              		.loc 3 191 0 discriminator 6
 449              		.syntax unified
 450              	@ 191 "Generated_Source\PSoC5/ErikaOS_1_cortex_mx_ee_cpu.inc" 1
 451 0080 62B6     		cpsie i
 452              	@ 0 "" 2
 453              		.thumb
 454              		.syntax unified
 455              	.LBE85:
 456              	.LBE84:
  85:Source\asw/tsk_io.c **** {
 457              		.loc 1 85 0 discriminator 6
 458 0082 BDE81940 		pop	{r0, r3, r4, lr}
 459              		.cfi_restore 14
 460              		.cfi_restore 4
 461              		.cfi_restore 3
 462              		.cfi_restore 0
 463              		.cfi_def_cfa_offset 0
 464 0086 8546     		mov	sp, r0
 465 0088 7047     		bx	lr
 466              	.L29:
 467 008a 00BF     		.align	2
 468              	.L28:
 469 008c 04ED00E0 		.word	-536810236
 470 0090 20ED00E0 		.word	-536810208
 471 0094 00000000 		.word	EE_IRQ_nesting_level
 472              		.cfi_endproc
 473              	.LFE142:
 474              		.size	isr_Button, .-isr_Button
 475              		.global	RTE_cyclicActivation_tsk_io_size
 476              		.global	RTE_cyclicActivationTable_tsk_io
 477              		.section	.rodata
 478              		.align	2
 479              		.set	.LANCHOR1,. + 0
 480              		.type	RTE_cyclicActivationTable_tsk_io, %object
ARM GAS  C:\Users\mau_g\AppData\Local\Temp\ccZHNTN4.s 			page 27


 481              		.size	RTE_cyclicActivationTable_tsk_io, 16
 482              	RTE_cyclicActivationTable_tsk_io:
 483 0000 00000000 		.word	CLOCK_input_run
 484 0004 3200     		.short	50
 485 0006 0000     		.space	2
 486 0008 00000000 		.word	CLOCK_display_run
 487 000c FA00     		.short	250
 488 000e 0000     		.space	2
 489              		.type	RTE_cyclicActivation_tsk_io_size, %object
 490              		.size	RTE_cyclicActivation_tsk_io_size, 2
 491              	RTE_cyclicActivation_tsk_io_size:
 492 0010 0200     		.short	2
 493              		.bss
 494              		.align	2
 495              		.set	.LANCHOR0,. + 0
 496              		.type	ticktime.8664, %object
 497              		.size	ticktime.8664, 4
 498              	ticktime.8664:
 499 0000 00000000 		.space	4
 500              		.text
 501              	.Letext0:
 502              		.file 6 "c:\\program files (x86)\\cypress\\psoc creator\\4.4\\psoc creator\\import\\gnu\\arm\\5.4.
 503              		.file 7 "c:\\program files (x86)\\cypress\\psoc creator\\4.4\\psoc creator\\import\\gnu\\arm\\5.4.
 504              		.file 8 "c:\\program files (x86)\\cypress\\psoc creator\\4.4\\psoc creator\\import\\gnu\\arm\\5.4.
 505              		.file 9 "Generated_Source\\PSoC5/ErikaOS_1_common_ee_types.inc"
 506              		.file 10 "Generated_Source\\PSoC5/ErikaOS_1_ee_oo_common.inc"
 507              		.file 11 ".\\Source\\bsw/global.h"
 508              		.file 12 ".\\Source\\rte/rte_types.h"
 509              		.file 13 ".\\Source\\rte/rte.h"
 510              		.file 14 ".\\Source\\rte/sc_event_type.h"
 511              		.file 15 ".\\Source\\rte/sc_button_type.h"
 512              		.file 16 "Generated_Source\\PSoC5/ErikaOS_1_ee_oo_intfunc.inc"
 513              		.file 17 "Generated_Source\\PSoC5/ErikaOS_1_cortex_mx_ee_context.inc"
 514              		.file 18 "Generated_Source\\PSoC5/ErikaOS_1_common_ee_primitives.inc"
 515              		.file 19 "Generated_Source\\PSoC5/core_cm3.h"
 516              		.file 20 ".\\Source\\rte/sp_common.h"
 517              		.file 21 "Generated_Source\\PSoC5/ErikaOS_1_ee_oo_kernel.inc"
 518              		.file 22 "Generated_Source\\PSoC5/ErikaOS_1_ee_oo_irq.inc"
 519              		.file 23 "Generated_Source\\PSoC5/ErikaOS_1_cortex_mx_ee_irq.inc"